
CONTROL_NODE_STM32.elf:     file format elf32-littlearm

Sections:
Idx Name          Size      VMA       LMA       File off  Algn
  0 .isr_vector   0000010c  08000000  08000000  00001000  2**0
                  CONTENTS, ALLOC, LOAD, READONLY, DATA
  1 .text         00001f70  0800010c  0800010c  0000110c  2**2
                  CONTENTS, ALLOC, LOAD, READONLY, CODE
  2 .rodata       000001a0  0800207c  0800207c  0000307c  2**2
                  CONTENTS, ALLOC, LOAD, READONLY, DATA
  3 .ARM.extab    00000000  0800221c  0800221c  0000401c  2**0
                  CONTENTS
  4 .ARM          00000000  0800221c  0800221c  0000401c  2**0
                  CONTENTS
  5 .preinit_array 00000000  0800221c  0800221c  0000401c  2**0
                  CONTENTS, ALLOC, LOAD, DATA
  6 .init_array   00000004  0800221c  0800221c  0000321c  2**2
                  CONTENTS, ALLOC, LOAD, READONLY, DATA
  7 .fini_array   00000004  08002220  08002220  00003220  2**2
                  CONTENTS, ALLOC, LOAD, READONLY, DATA
  8 .data         0000001c  20000000  08002224  00004000  2**2
                  CONTENTS, ALLOC, LOAD, DATA
  9 .bss          000000e0  2000001c  08002240  0000401c  2**2
                  ALLOC
 10 ._user_heap_stack 00000604  200000fc  08002240  000040fc  2**0
                  ALLOC
 11 .ARM.attributes 00000029  00000000  00000000  0000401c  2**0
                  CONTENTS, READONLY
 12 .debug_info   000038bd  00000000  00000000  00004045  2**0
                  CONTENTS, READONLY, DEBUGGING, OCTETS
 13 .debug_abbrev 0000143a  00000000  00000000  00007902  2**0
                  CONTENTS, READONLY, DEBUGGING, OCTETS
 14 .debug_aranges 00000480  00000000  00000000  00008d40  2**3
                  CONTENTS, READONLY, DEBUGGING, OCTETS
 15 .debug_rnglists 00000317  00000000  00000000  000091c0  2**0
                  CONTENTS, READONLY, DEBUGGING, OCTETS
 16 .debug_macro  000164a1  00000000  00000000  000094d7  2**0
                  CONTENTS, READONLY, DEBUGGING, OCTETS
 17 .debug_line   00007da6  00000000  00000000  0001f978  2**0
                  CONTENTS, READONLY, DEBUGGING, OCTETS
 18 .debug_str    0007de8e  00000000  00000000  0002771e  2**0
                  CONTENTS, READONLY, DEBUGGING, OCTETS
 19 .comment      00000043  00000000  00000000  000a55ac  2**0
                  CONTENTS, READONLY
 20 .debug_frame  00000ea4  00000000  00000000  000a55f0  2**2
                  CONTENTS, READONLY, DEBUGGING, OCTETS
 21 .debug_line_str 00000062  00000000  00000000  000a6494  2**0
                  CONTENTS, READONLY, DEBUGGING, OCTETS

Disassembly of section .text:

0800010c <__do_global_dtors_aux>:
 800010c:	b510      	push	{r4, lr}
 800010e:	4c05      	ldr	r4, [pc, #20]	@ (8000124 <__do_global_dtors_aux+0x18>)
 8000110:	7823      	ldrb	r3, [r4, #0]
 8000112:	b933      	cbnz	r3, 8000122 <__do_global_dtors_aux+0x16>
 8000114:	4b04      	ldr	r3, [pc, #16]	@ (8000128 <__do_global_dtors_aux+0x1c>)
 8000116:	b113      	cbz	r3, 800011e <__do_global_dtors_aux+0x12>
 8000118:	4804      	ldr	r0, [pc, #16]	@ (800012c <__do_global_dtors_aux+0x20>)
 800011a:	f3af 8000 	nop.w
 800011e:	2301      	movs	r3, #1
 8000120:	7023      	strb	r3, [r4, #0]
 8000122:	bd10      	pop	{r4, pc}
 8000124:	2000001c 	.word	0x2000001c
 8000128:	00000000 	.word	0x00000000
 800012c:	08002064 	.word	0x08002064

08000130 <frame_dummy>:
 8000130:	b508      	push	{r3, lr}
 8000132:	4b03      	ldr	r3, [pc, #12]	@ (8000140 <frame_dummy+0x10>)
 8000134:	b11b      	cbz	r3, 800013e <frame_dummy+0xe>
 8000136:	4903      	ldr	r1, [pc, #12]	@ (8000144 <frame_dummy+0x14>)
 8000138:	4803      	ldr	r0, [pc, #12]	@ (8000148 <frame_dummy+0x18>)
 800013a:	f3af 8000 	nop.w
 800013e:	bd08      	pop	{r3, pc}
 8000140:	00000000 	.word	0x00000000
 8000144:	20000020 	.word	0x20000020
 8000148:	08002064 	.word	0x08002064

0800014c <__aeabi_frsub>:
 800014c:	f080 4000 	eor.w	r0, r0, #2147483648	@ 0x80000000
 8000150:	e002      	b.n	8000158 <__addsf3>
 8000152:	bf00      	nop

08000154 <__aeabi_fsub>:
 8000154:	f081 4100 	eor.w	r1, r1, #2147483648	@ 0x80000000

08000158 <__addsf3>:
 8000158:	0042      	lsls	r2, r0, #1
 800015a:	bf1f      	itttt	ne
 800015c:	ea5f 0341 	movsne.w	r3, r1, lsl #1
 8000160:	ea92 0f03 	teqne	r2, r3
 8000164:	ea7f 6c22 	mvnsne.w	ip, r2, asr #24
 8000168:	ea7f 6c23 	mvnsne.w	ip, r3, asr #24
 800016c:	d06a      	beq.n	8000244 <__addsf3+0xec>
 800016e:	ea4f 6212 	mov.w	r2, r2, lsr #24
 8000172:	ebd2 6313 	rsbs	r3, r2, r3, lsr #24
 8000176:	bfc1      	itttt	gt
 8000178:	18d2      	addgt	r2, r2, r3
 800017a:	4041      	eorgt	r1, r0
 800017c:	4048      	eorgt	r0, r1
 800017e:	4041      	eorgt	r1, r0
 8000180:	bfb8      	it	lt
 8000182:	425b      	neglt	r3, r3
 8000184:	2b19      	cmp	r3, #25
 8000186:	bf88      	it	hi
 8000188:	4770      	bxhi	lr
 800018a:	f010 4f00 	tst.w	r0, #2147483648	@ 0x80000000
 800018e:	f440 0000 	orr.w	r0, r0, #8388608	@ 0x800000
 8000192:	f020 407f 	bic.w	r0, r0, #4278190080	@ 0xff000000
 8000196:	bf18      	it	ne
 8000198:	4240      	negne	r0, r0
 800019a:	f011 4f00 	tst.w	r1, #2147483648	@ 0x80000000
 800019e:	f441 0100 	orr.w	r1, r1, #8388608	@ 0x800000
 80001a2:	f021 417f 	bic.w	r1, r1, #4278190080	@ 0xff000000
 80001a6:	bf18      	it	ne
 80001a8:	4249      	negne	r1, r1
 80001aa:	ea92 0f03 	teq	r2, r3
 80001ae:	d03f      	beq.n	8000230 <__addsf3+0xd8>
 80001b0:	f1a2 0201 	sub.w	r2, r2, #1
 80001b4:	fa41 fc03 	asr.w	ip, r1, r3
 80001b8:	eb10 000c 	adds.w	r0, r0, ip
 80001bc:	f1c3 0320 	rsb	r3, r3, #32
 80001c0:	fa01 f103 	lsl.w	r1, r1, r3
 80001c4:	f000 4300 	and.w	r3, r0, #2147483648	@ 0x80000000
 80001c8:	d502      	bpl.n	80001d0 <__addsf3+0x78>
 80001ca:	4249      	negs	r1, r1
 80001cc:	eb60 0040 	sbc.w	r0, r0, r0, lsl #1
 80001d0:	f5b0 0f00 	cmp.w	r0, #8388608	@ 0x800000
 80001d4:	d313      	bcc.n	80001fe <__addsf3+0xa6>
 80001d6:	f1b0 7f80 	cmp.w	r0, #16777216	@ 0x1000000
 80001da:	d306      	bcc.n	80001ea <__addsf3+0x92>
 80001dc:	0840      	lsrs	r0, r0, #1
 80001de:	ea4f 0131 	mov.w	r1, r1, rrx
 80001e2:	f102 0201 	add.w	r2, r2, #1
 80001e6:	2afe      	cmp	r2, #254	@ 0xfe
 80001e8:	d251      	bcs.n	800028e <__addsf3+0x136>
 80001ea:	f1b1 4f00 	cmp.w	r1, #2147483648	@ 0x80000000
 80001ee:	eb40 50c2 	adc.w	r0, r0, r2, lsl #23
 80001f2:	bf08      	it	eq
 80001f4:	f020 0001 	biceq.w	r0, r0, #1
 80001f8:	ea40 0003 	orr.w	r0, r0, r3
 80001fc:	4770      	bx	lr
 80001fe:	0049      	lsls	r1, r1, #1
 8000200:	eb40 0000 	adc.w	r0, r0, r0
 8000204:	3a01      	subs	r2, #1
 8000206:	bf28      	it	cs
 8000208:	f5b0 0f00 	cmpcs.w	r0, #8388608	@ 0x800000
 800020c:	d2ed      	bcs.n	80001ea <__addsf3+0x92>
 800020e:	fab0 fc80 	clz	ip, r0
 8000212:	f1ac 0c08 	sub.w	ip, ip, #8
 8000216:	ebb2 020c 	subs.w	r2, r2, ip
 800021a:	fa00 f00c 	lsl.w	r0, r0, ip
 800021e:	bfaa      	itet	ge
 8000220:	eb00 50c2 	addge.w	r0, r0, r2, lsl #23
 8000224:	4252      	neglt	r2, r2
 8000226:	4318      	orrge	r0, r3
 8000228:	bfbc      	itt	lt
 800022a:	40d0      	lsrlt	r0, r2
 800022c:	4318      	orrlt	r0, r3
 800022e:	4770      	bx	lr
 8000230:	f092 0f00 	teq	r2, #0
 8000234:	f481 0100 	eor.w	r1, r1, #8388608	@ 0x800000
 8000238:	bf06      	itte	eq
 800023a:	f480 0000 	eoreq.w	r0, r0, #8388608	@ 0x800000
 800023e:	3201      	addeq	r2, #1
 8000240:	3b01      	subne	r3, #1
 8000242:	e7b5      	b.n	80001b0 <__addsf3+0x58>
 8000244:	ea4f 0341 	mov.w	r3, r1, lsl #1
 8000248:	ea7f 6c22 	mvns.w	ip, r2, asr #24
 800024c:	bf18      	it	ne
 800024e:	ea7f 6c23 	mvnsne.w	ip, r3, asr #24
 8000252:	d021      	beq.n	8000298 <__addsf3+0x140>
 8000254:	ea92 0f03 	teq	r2, r3
 8000258:	d004      	beq.n	8000264 <__addsf3+0x10c>
 800025a:	f092 0f00 	teq	r2, #0
 800025e:	bf08      	it	eq
 8000260:	4608      	moveq	r0, r1
 8000262:	4770      	bx	lr
 8000264:	ea90 0f01 	teq	r0, r1
 8000268:	bf1c      	itt	ne
 800026a:	2000      	movne	r0, #0
 800026c:	4770      	bxne	lr
 800026e:	f012 4f7f 	tst.w	r2, #4278190080	@ 0xff000000
 8000272:	d104      	bne.n	800027e <__addsf3+0x126>
 8000274:	0040      	lsls	r0, r0, #1
 8000276:	bf28      	it	cs
 8000278:	f040 4000 	orrcs.w	r0, r0, #2147483648	@ 0x80000000
 800027c:	4770      	bx	lr
 800027e:	f112 7200 	adds.w	r2, r2, #33554432	@ 0x2000000
 8000282:	bf3c      	itt	cc
 8000284:	f500 0000 	addcc.w	r0, r0, #8388608	@ 0x800000
 8000288:	4770      	bxcc	lr
 800028a:	f000 4300 	and.w	r3, r0, #2147483648	@ 0x80000000
 800028e:	f043 40fe 	orr.w	r0, r3, #2130706432	@ 0x7f000000
 8000292:	f440 0000 	orr.w	r0, r0, #8388608	@ 0x800000
 8000296:	4770      	bx	lr
 8000298:	ea7f 6222 	mvns.w	r2, r2, asr #24
 800029c:	bf16      	itet	ne
 800029e:	4608      	movne	r0, r1
 80002a0:	ea7f 6323 	mvnseq.w	r3, r3, asr #24
 80002a4:	4601      	movne	r1, r0
 80002a6:	0242      	lsls	r2, r0, #9
 80002a8:	bf06      	itte	eq
 80002aa:	ea5f 2341 	movseq.w	r3, r1, lsl #9
 80002ae:	ea90 0f01 	teqeq	r0, r1
 80002b2:	f440 0080 	orrne.w	r0, r0, #4194304	@ 0x400000
 80002b6:	4770      	bx	lr

080002b8 <__aeabi_ui2f>:
 80002b8:	f04f 0300 	mov.w	r3, #0
 80002bc:	e004      	b.n	80002c8 <__aeabi_i2f+0x8>
 80002be:	bf00      	nop

080002c0 <__aeabi_i2f>:
 80002c0:	f010 4300 	ands.w	r3, r0, #2147483648	@ 0x80000000
 80002c4:	bf48      	it	mi
 80002c6:	4240      	negmi	r0, r0
 80002c8:	ea5f 0c00 	movs.w	ip, r0
 80002cc:	bf08      	it	eq
 80002ce:	4770      	bxeq	lr
 80002d0:	f043 4396 	orr.w	r3, r3, #1258291200	@ 0x4b000000
 80002d4:	4601      	mov	r1, r0
 80002d6:	f04f 0000 	mov.w	r0, #0
 80002da:	e01c      	b.n	8000316 <__aeabi_l2f+0x2a>

080002dc <__aeabi_ul2f>:
 80002dc:	ea50 0201 	orrs.w	r2, r0, r1
 80002e0:	bf08      	it	eq
 80002e2:	4770      	bxeq	lr
 80002e4:	f04f 0300 	mov.w	r3, #0
 80002e8:	e00a      	b.n	8000300 <__aeabi_l2f+0x14>
 80002ea:	bf00      	nop

080002ec <__aeabi_l2f>:
 80002ec:	ea50 0201 	orrs.w	r2, r0, r1
 80002f0:	bf08      	it	eq
 80002f2:	4770      	bxeq	lr
 80002f4:	f011 4300 	ands.w	r3, r1, #2147483648	@ 0x80000000
 80002f8:	d502      	bpl.n	8000300 <__aeabi_l2f+0x14>
 80002fa:	4240      	negs	r0, r0
 80002fc:	eb61 0141 	sbc.w	r1, r1, r1, lsl #1
 8000300:	ea5f 0c01 	movs.w	ip, r1
 8000304:	bf02      	ittt	eq
 8000306:	4684      	moveq	ip, r0
 8000308:	4601      	moveq	r1, r0
 800030a:	2000      	moveq	r0, #0
 800030c:	f043 43b6 	orr.w	r3, r3, #1526726656	@ 0x5b000000
 8000310:	bf08      	it	eq
 8000312:	f1a3 5380 	subeq.w	r3, r3, #268435456	@ 0x10000000
 8000316:	f5a3 0300 	sub.w	r3, r3, #8388608	@ 0x800000
 800031a:	fabc f28c 	clz	r2, ip
 800031e:	3a08      	subs	r2, #8
 8000320:	eba3 53c2 	sub.w	r3, r3, r2, lsl #23
 8000324:	db10      	blt.n	8000348 <__aeabi_l2f+0x5c>
 8000326:	fa01 fc02 	lsl.w	ip, r1, r2
 800032a:	4463      	add	r3, ip
 800032c:	fa00 fc02 	lsl.w	ip, r0, r2
 8000330:	f1c2 0220 	rsb	r2, r2, #32
 8000334:	f1bc 4f00 	cmp.w	ip, #2147483648	@ 0x80000000
 8000338:	fa20 f202 	lsr.w	r2, r0, r2
 800033c:	eb43 0002 	adc.w	r0, r3, r2
 8000340:	bf08      	it	eq
 8000342:	f020 0001 	biceq.w	r0, r0, #1
 8000346:	4770      	bx	lr
 8000348:	f102 0220 	add.w	r2, r2, #32
 800034c:	fa01 fc02 	lsl.w	ip, r1, r2
 8000350:	f1c2 0220 	rsb	r2, r2, #32
 8000354:	ea50 004c 	orrs.w	r0, r0, ip, lsl #1
 8000358:	fa21 f202 	lsr.w	r2, r1, r2
 800035c:	eb43 0002 	adc.w	r0, r3, r2
 8000360:	bf08      	it	eq
 8000362:	ea20 70dc 	biceq.w	r0, r0, ip, lsr #31
 8000366:	4770      	bx	lr

08000368 <__aeabi_fmul>:
 8000368:	f04f 0cff 	mov.w	ip, #255	@ 0xff
 800036c:	ea1c 52d0 	ands.w	r2, ip, r0, lsr #23
 8000370:	bf1e      	ittt	ne
 8000372:	ea1c 53d1 	andsne.w	r3, ip, r1, lsr #23
 8000376:	ea92 0f0c 	teqne	r2, ip
 800037a:	ea93 0f0c 	teqne	r3, ip
 800037e:	d06f      	beq.n	8000460 <__aeabi_fmul+0xf8>
 8000380:	441a      	add	r2, r3
 8000382:	ea80 0c01 	eor.w	ip, r0, r1
 8000386:	0240      	lsls	r0, r0, #9
 8000388:	bf18      	it	ne
 800038a:	ea5f 2141 	movsne.w	r1, r1, lsl #9
 800038e:	d01e      	beq.n	80003ce <__aeabi_fmul+0x66>
 8000390:	f04f 6300 	mov.w	r3, #134217728	@ 0x8000000
 8000394:	ea43 1050 	orr.w	r0, r3, r0, lsr #5
 8000398:	ea43 1151 	orr.w	r1, r3, r1, lsr #5
 800039c:	fba0 3101 	umull	r3, r1, r0, r1
 80003a0:	f00c 4000 	and.w	r0, ip, #2147483648	@ 0x80000000
 80003a4:	f5b1 0f00 	cmp.w	r1, #8388608	@ 0x800000
 80003a8:	bf3e      	ittt	cc
 80003aa:	0049      	lslcc	r1, r1, #1
 80003ac:	ea41 71d3 	orrcc.w	r1, r1, r3, lsr #31
 80003b0:	005b      	lslcc	r3, r3, #1
 80003b2:	ea40 0001 	orr.w	r0, r0, r1
 80003b6:	f162 027f 	sbc.w	r2, r2, #127	@ 0x7f
 80003ba:	2afd      	cmp	r2, #253	@ 0xfd
 80003bc:	d81d      	bhi.n	80003fa <__aeabi_fmul+0x92>
 80003be:	f1b3 4f00 	cmp.w	r3, #2147483648	@ 0x80000000
 80003c2:	eb40 50c2 	adc.w	r0, r0, r2, lsl #23
 80003c6:	bf08      	it	eq
 80003c8:	f020 0001 	biceq.w	r0, r0, #1
 80003cc:	4770      	bx	lr
 80003ce:	f090 0f00 	teq	r0, #0
 80003d2:	f00c 4c00 	and.w	ip, ip, #2147483648	@ 0x80000000
 80003d6:	bf08      	it	eq
 80003d8:	0249      	lsleq	r1, r1, #9
 80003da:	ea4c 2050 	orr.w	r0, ip, r0, lsr #9
 80003de:	ea40 2051 	orr.w	r0, r0, r1, lsr #9
 80003e2:	3a7f      	subs	r2, #127	@ 0x7f
 80003e4:	bfc2      	ittt	gt
 80003e6:	f1d2 03ff 	rsbsgt	r3, r2, #255	@ 0xff
 80003ea:	ea40 50c2 	orrgt.w	r0, r0, r2, lsl #23
 80003ee:	4770      	bxgt	lr
 80003f0:	f440 0000 	orr.w	r0, r0, #8388608	@ 0x800000
 80003f4:	f04f 0300 	mov.w	r3, #0
 80003f8:	3a01      	subs	r2, #1
 80003fa:	dc5d      	bgt.n	80004b8 <__aeabi_fmul+0x150>
 80003fc:	f112 0f19 	cmn.w	r2, #25
 8000400:	bfdc      	itt	le
 8000402:	f000 4000 	andle.w	r0, r0, #2147483648	@ 0x80000000
 8000406:	4770      	bxle	lr
 8000408:	f1c2 0200 	rsb	r2, r2, #0
 800040c:	0041      	lsls	r1, r0, #1
 800040e:	fa21 f102 	lsr.w	r1, r1, r2
 8000412:	f1c2 0220 	rsb	r2, r2, #32
 8000416:	fa00 fc02 	lsl.w	ip, r0, r2
 800041a:	ea5f 0031 	movs.w	r0, r1, rrx
 800041e:	f140 0000 	adc.w	r0, r0, #0
 8000422:	ea53 034c 	orrs.w	r3, r3, ip, lsl #1
 8000426:	bf08      	it	eq
 8000428:	ea20 70dc 	biceq.w	r0, r0, ip, lsr #31
 800042c:	4770      	bx	lr
 800042e:	f092 0f00 	teq	r2, #0
 8000432:	f000 4c00 	and.w	ip, r0, #2147483648	@ 0x80000000
 8000436:	bf02      	ittt	eq
 8000438:	0040      	lsleq	r0, r0, #1
 800043a:	f410 0f00 	tsteq.w	r0, #8388608	@ 0x800000
 800043e:	3a01      	subeq	r2, #1
 8000440:	d0f9      	beq.n	8000436 <__aeabi_fmul+0xce>
 8000442:	ea40 000c 	orr.w	r0, r0, ip
 8000446:	f093 0f00 	teq	r3, #0
 800044a:	f001 4c00 	and.w	ip, r1, #2147483648	@ 0x80000000
 800044e:	bf02      	ittt	eq
 8000450:	0049      	lsleq	r1, r1, #1
 8000452:	f411 0f00 	tsteq.w	r1, #8388608	@ 0x800000
 8000456:	3b01      	subeq	r3, #1
 8000458:	d0f9      	beq.n	800044e <__aeabi_fmul+0xe6>
 800045a:	ea41 010c 	orr.w	r1, r1, ip
 800045e:	e78f      	b.n	8000380 <__aeabi_fmul+0x18>
 8000460:	ea0c 53d1 	and.w	r3, ip, r1, lsr #23
 8000464:	ea92 0f0c 	teq	r2, ip
 8000468:	bf18      	it	ne
 800046a:	ea93 0f0c 	teqne	r3, ip
 800046e:	d00a      	beq.n	8000486 <__aeabi_fmul+0x11e>
 8000470:	f030 4c00 	bics.w	ip, r0, #2147483648	@ 0x80000000
 8000474:	bf18      	it	ne
 8000476:	f031 4c00 	bicsne.w	ip, r1, #2147483648	@ 0x80000000
 800047a:	d1d8      	bne.n	800042e <__aeabi_fmul+0xc6>
 800047c:	ea80 0001 	eor.w	r0, r0, r1
 8000480:	f000 4000 	and.w	r0, r0, #2147483648	@ 0x80000000
 8000484:	4770      	bx	lr
 8000486:	f090 0f00 	teq	r0, #0
 800048a:	bf17      	itett	ne
 800048c:	f090 4f00 	teqne	r0, #2147483648	@ 0x80000000
 8000490:	4608      	moveq	r0, r1
 8000492:	f091 0f00 	teqne	r1, #0
 8000496:	f091 4f00 	teqne	r1, #2147483648	@ 0x80000000
 800049a:	d014      	beq.n	80004c6 <__aeabi_fmul+0x15e>
 800049c:	ea92 0f0c 	teq	r2, ip
 80004a0:	d101      	bne.n	80004a6 <__aeabi_fmul+0x13e>
 80004a2:	0242      	lsls	r2, r0, #9
 80004a4:	d10f      	bne.n	80004c6 <__aeabi_fmul+0x15e>
 80004a6:	ea93 0f0c 	teq	r3, ip
 80004aa:	d103      	bne.n	80004b4 <__aeabi_fmul+0x14c>
 80004ac:	024b      	lsls	r3, r1, #9
 80004ae:	bf18      	it	ne
 80004b0:	4608      	movne	r0, r1
 80004b2:	d108      	bne.n	80004c6 <__aeabi_fmul+0x15e>
 80004b4:	ea80 0001 	eor.w	r0, r0, r1
 80004b8:	f000 4000 	and.w	r0, r0, #2147483648	@ 0x80000000
 80004bc:	f040 40fe 	orr.w	r0, r0, #2130706432	@ 0x7f000000
 80004c0:	f440 0000 	orr.w	r0, r0, #8388608	@ 0x800000
 80004c4:	4770      	bx	lr
 80004c6:	f040 40fe 	orr.w	r0, r0, #2130706432	@ 0x7f000000
 80004ca:	f440 0040 	orr.w	r0, r0, #12582912	@ 0xc00000
 80004ce:	4770      	bx	lr

080004d0 <__aeabi_fdiv>:
 80004d0:	f04f 0cff 	mov.w	ip, #255	@ 0xff
 80004d4:	ea1c 52d0 	ands.w	r2, ip, r0, lsr #23
 80004d8:	bf1e      	ittt	ne
 80004da:	ea1c 53d1 	andsne.w	r3, ip, r1, lsr #23
 80004de:	ea92 0f0c 	teqne	r2, ip
 80004e2:	ea93 0f0c 	teqne	r3, ip
 80004e6:	d069      	beq.n	80005bc <__aeabi_fdiv+0xec>
 80004e8:	eba2 0203 	sub.w	r2, r2, r3
 80004ec:	ea80 0c01 	eor.w	ip, r0, r1
 80004f0:	0249      	lsls	r1, r1, #9
 80004f2:	ea4f 2040 	mov.w	r0, r0, lsl #9
 80004f6:	d037      	beq.n	8000568 <__aeabi_fdiv+0x98>
 80004f8:	f04f 5380 	mov.w	r3, #268435456	@ 0x10000000
 80004fc:	ea43 1111 	orr.w	r1, r3, r1, lsr #4
 8000500:	ea43 1310 	orr.w	r3, r3, r0, lsr #4
 8000504:	f00c 4000 	and.w	r0, ip, #2147483648	@ 0x80000000
 8000508:	428b      	cmp	r3, r1
 800050a:	bf38      	it	cc
 800050c:	005b      	lslcc	r3, r3, #1
 800050e:	f142 027d 	adc.w	r2, r2, #125	@ 0x7d
 8000512:	f44f 0c00 	mov.w	ip, #8388608	@ 0x800000
 8000516:	428b      	cmp	r3, r1
 8000518:	bf24      	itt	cs
 800051a:	1a5b      	subcs	r3, r3, r1
 800051c:	ea40 000c 	orrcs.w	r0, r0, ip
 8000520:	ebb3 0f51 	cmp.w	r3, r1, lsr #1
 8000524:	bf24      	itt	cs
 8000526:	eba3 0351 	subcs.w	r3, r3, r1, lsr #1
 800052a:	ea40 005c 	orrcs.w	r0, r0, ip, lsr #1
 800052e:	ebb3 0f91 	cmp.w	r3, r1, lsr #2
 8000532:	bf24      	itt	cs
 8000534:	eba3 0391 	subcs.w	r3, r3, r1, lsr #2
 8000538:	ea40 009c 	orrcs.w	r0, r0, ip, lsr #2
 800053c:	ebb3 0fd1 	cmp.w	r3, r1, lsr #3
 8000540:	bf24      	itt	cs
 8000542:	eba3 03d1 	subcs.w	r3, r3, r1, lsr #3
 8000546:	ea40 00dc 	orrcs.w	r0, r0, ip, lsr #3
 800054a:	011b      	lsls	r3, r3, #4
 800054c:	bf18      	it	ne
 800054e:	ea5f 1c1c 	movsne.w	ip, ip, lsr #4
 8000552:	d1e0      	bne.n	8000516 <__aeabi_fdiv+0x46>
 8000554:	2afd      	cmp	r2, #253	@ 0xfd
 8000556:	f63f af50 	bhi.w	80003fa <__aeabi_fmul+0x92>
 800055a:	428b      	cmp	r3, r1
 800055c:	eb40 50c2 	adc.w	r0, r0, r2, lsl #23
 8000560:	bf08      	it	eq
 8000562:	f020 0001 	biceq.w	r0, r0, #1
 8000566:	4770      	bx	lr
 8000568:	f00c 4c00 	and.w	ip, ip, #2147483648	@ 0x80000000
 800056c:	ea4c 2050 	orr.w	r0, ip, r0, lsr #9
 8000570:	327f      	adds	r2, #127	@ 0x7f
 8000572:	bfc2      	ittt	gt
 8000574:	f1d2 03ff 	rsbsgt	r3, r2, #255	@ 0xff
 8000578:	ea40 50c2 	orrgt.w	r0, r0, r2, lsl #23
 800057c:	4770      	bxgt	lr
 800057e:	f440 0000 	orr.w	r0, r0, #8388608	@ 0x800000
 8000582:	f04f 0300 	mov.w	r3, #0
 8000586:	3a01      	subs	r2, #1
 8000588:	e737      	b.n	80003fa <__aeabi_fmul+0x92>
 800058a:	f092 0f00 	teq	r2, #0
 800058e:	f000 4c00 	and.w	ip, r0, #2147483648	@ 0x80000000
 8000592:	bf02      	ittt	eq
 8000594:	0040      	lsleq	r0, r0, #1
 8000596:	f410 0f00 	tsteq.w	r0, #8388608	@ 0x800000
 800059a:	3a01      	subeq	r2, #1
 800059c:	d0f9      	beq.n	8000592 <__aeabi_fdiv+0xc2>
 800059e:	ea40 000c 	orr.w	r0, r0, ip
 80005a2:	f093 0f00 	teq	r3, #0
 80005a6:	f001 4c00 	and.w	ip, r1, #2147483648	@ 0x80000000
 80005aa:	bf02      	ittt	eq
 80005ac:	0049      	lsleq	r1, r1, #1
 80005ae:	f411 0f00 	tsteq.w	r1, #8388608	@ 0x800000
 80005b2:	3b01      	subeq	r3, #1
 80005b4:	d0f9      	beq.n	80005aa <__aeabi_fdiv+0xda>
 80005b6:	ea41 010c 	orr.w	r1, r1, ip
 80005ba:	e795      	b.n	80004e8 <__aeabi_fdiv+0x18>
 80005bc:	ea0c 53d1 	and.w	r3, ip, r1, lsr #23
 80005c0:	ea92 0f0c 	teq	r2, ip
 80005c4:	d108      	bne.n	80005d8 <__aeabi_fdiv+0x108>
 80005c6:	0242      	lsls	r2, r0, #9
 80005c8:	f47f af7d 	bne.w	80004c6 <__aeabi_fmul+0x15e>
 80005cc:	ea93 0f0c 	teq	r3, ip
 80005d0:	f47f af70 	bne.w	80004b4 <__aeabi_fmul+0x14c>
 80005d4:	4608      	mov	r0, r1
 80005d6:	e776      	b.n	80004c6 <__aeabi_fmul+0x15e>
 80005d8:	ea93 0f0c 	teq	r3, ip
 80005dc:	d104      	bne.n	80005e8 <__aeabi_fdiv+0x118>
 80005de:	024b      	lsls	r3, r1, #9
 80005e0:	f43f af4c 	beq.w	800047c <__aeabi_fmul+0x114>
 80005e4:	4608      	mov	r0, r1
 80005e6:	e76e      	b.n	80004c6 <__aeabi_fmul+0x15e>
 80005e8:	f030 4c00 	bics.w	ip, r0, #2147483648	@ 0x80000000
 80005ec:	bf18      	it	ne
 80005ee:	f031 4c00 	bicsne.w	ip, r1, #2147483648	@ 0x80000000
 80005f2:	d1ca      	bne.n	800058a <__aeabi_fdiv+0xba>
 80005f4:	f030 4200 	bics.w	r2, r0, #2147483648	@ 0x80000000
 80005f8:	f47f af5c 	bne.w	80004b4 <__aeabi_fmul+0x14c>
 80005fc:	f031 4300 	bics.w	r3, r1, #2147483648	@ 0x80000000
 8000600:	f47f af3c 	bne.w	800047c <__aeabi_fmul+0x114>
 8000604:	e75f      	b.n	80004c6 <__aeabi_fmul+0x15e>
 8000606:	bf00      	nop

08000608 <__gesf2>:
 8000608:	f04f 3cff 	mov.w	ip, #4294967295
 800060c:	e006      	b.n	800061c <__cmpsf2+0x4>
 800060e:	bf00      	nop

08000610 <__lesf2>:
 8000610:	f04f 0c01 	mov.w	ip, #1
 8000614:	e002      	b.n	800061c <__cmpsf2+0x4>
 8000616:	bf00      	nop

08000618 <__cmpsf2>:
 8000618:	f04f 0c01 	mov.w	ip, #1
 800061c:	f84d cd04 	str.w	ip, [sp, #-4]!
 8000620:	ea4f 0240 	mov.w	r2, r0, lsl #1
 8000624:	ea4f 0341 	mov.w	r3, r1, lsl #1
 8000628:	ea7f 6c22 	mvns.w	ip, r2, asr #24
 800062c:	bf18      	it	ne
 800062e:	ea7f 6c23 	mvnsne.w	ip, r3, asr #24
 8000632:	d011      	beq.n	8000658 <__cmpsf2+0x40>
 8000634:	b001      	add	sp, #4
 8000636:	ea52 0c53 	orrs.w	ip, r2, r3, lsr #1
 800063a:	bf18      	it	ne
 800063c:	ea90 0f01 	teqne	r0, r1
 8000640:	bf58      	it	pl
 8000642:	ebb2 0003 	subspl.w	r0, r2, r3
 8000646:	bf88      	it	hi
 8000648:	17c8      	asrhi	r0, r1, #31
 800064a:	bf38      	it	cc
 800064c:	ea6f 70e1 	mvncc.w	r0, r1, asr #31
 8000650:	bf18      	it	ne
 8000652:	f040 0001 	orrne.w	r0, r0, #1
 8000656:	4770      	bx	lr
 8000658:	ea7f 6c22 	mvns.w	ip, r2, asr #24
 800065c:	d102      	bne.n	8000664 <__cmpsf2+0x4c>
 800065e:	ea5f 2c40 	movs.w	ip, r0, lsl #9
 8000662:	d105      	bne.n	8000670 <__cmpsf2+0x58>
 8000664:	ea7f 6c23 	mvns.w	ip, r3, asr #24
 8000668:	d1e4      	bne.n	8000634 <__cmpsf2+0x1c>
 800066a:	ea5f 2c41 	movs.w	ip, r1, lsl #9
 800066e:	d0e1      	beq.n	8000634 <__cmpsf2+0x1c>
 8000670:	f85d 0b04 	ldr.w	r0, [sp], #4
 8000674:	4770      	bx	lr
 8000676:	bf00      	nop

08000678 <__aeabi_cfrcmple>:
 8000678:	4684      	mov	ip, r0
 800067a:	4608      	mov	r0, r1
 800067c:	4661      	mov	r1, ip
 800067e:	e7ff      	b.n	8000680 <__aeabi_cfcmpeq>

08000680 <__aeabi_cfcmpeq>:
 8000680:	b50f      	push	{r0, r1, r2, r3, lr}
 8000682:	f7ff ffc9 	bl	8000618 <__cmpsf2>
 8000686:	2800      	cmp	r0, #0
 8000688:	bf48      	it	mi
 800068a:	f110 0f00 	cmnmi.w	r0, #0
 800068e:	bd0f      	pop	{r0, r1, r2, r3, pc}

08000690 <__aeabi_fcmpeq>:
 8000690:	f84d ed08 	str.w	lr, [sp, #-8]!
 8000694:	f7ff fff4 	bl	8000680 <__aeabi_cfcmpeq>
 8000698:	bf0c      	ite	eq
 800069a:	2001      	moveq	r0, #1
 800069c:	2000      	movne	r0, #0
 800069e:	f85d fb08 	ldr.w	pc, [sp], #8
 80006a2:	bf00      	nop

080006a4 <__aeabi_fcmplt>:
 80006a4:	f84d ed08 	str.w	lr, [sp, #-8]!
 80006a8:	f7ff ffea 	bl	8000680 <__aeabi_cfcmpeq>
 80006ac:	bf34      	ite	cc
 80006ae:	2001      	movcc	r0, #1
 80006b0:	2000      	movcs	r0, #0
 80006b2:	f85d fb08 	ldr.w	pc, [sp], #8
 80006b6:	bf00      	nop

080006b8 <__aeabi_fcmple>:
 80006b8:	f84d ed08 	str.w	lr, [sp, #-8]!
 80006bc:	f7ff ffe0 	bl	8000680 <__aeabi_cfcmpeq>
 80006c0:	bf94      	ite	ls
 80006c2:	2001      	movls	r0, #1
 80006c4:	2000      	movhi	r0, #0
 80006c6:	f85d fb08 	ldr.w	pc, [sp], #8
 80006ca:	bf00      	nop

080006cc <__aeabi_fcmpge>:
 80006cc:	f84d ed08 	str.w	lr, [sp, #-8]!
 80006d0:	f7ff ffd2 	bl	8000678 <__aeabi_cfrcmple>
 80006d4:	bf94      	ite	ls
 80006d6:	2001      	movls	r0, #1
 80006d8:	2000      	movhi	r0, #0
 80006da:	f85d fb08 	ldr.w	pc, [sp], #8
 80006de:	bf00      	nop

080006e0 <__aeabi_fcmpgt>:
 80006e0:	f84d ed08 	str.w	lr, [sp, #-8]!
 80006e4:	f7ff ffc8 	bl	8000678 <__aeabi_cfrcmple>
 80006e8:	bf34      	ite	cc
 80006ea:	2001      	movcc	r0, #1
 80006ec:	2000      	movcs	r0, #0
 80006ee:	f85d fb08 	ldr.w	pc, [sp], #8
 80006f2:	bf00      	nop

080006f4 <__aeabi_f2iz>:
 80006f4:	ea4f 0240 	mov.w	r2, r0, lsl #1
 80006f8:	f1b2 4ffe 	cmp.w	r2, #2130706432	@ 0x7f000000
 80006fc:	d30f      	bcc.n	800071e <__aeabi_f2iz+0x2a>
 80006fe:	f04f 039e 	mov.w	r3, #158	@ 0x9e
 8000702:	ebb3 6212 	subs.w	r2, r3, r2, lsr #24
 8000706:	d90d      	bls.n	8000724 <__aeabi_f2iz+0x30>
 8000708:	ea4f 2300 	mov.w	r3, r0, lsl #8
 800070c:	f043 4300 	orr.w	r3, r3, #2147483648	@ 0x80000000
 8000710:	f010 4f00 	tst.w	r0, #2147483648	@ 0x80000000
 8000714:	fa23 f002 	lsr.w	r0, r3, r2
 8000718:	bf18      	it	ne
 800071a:	4240      	negne	r0, r0
 800071c:	4770      	bx	lr
 800071e:	f04f 0000 	mov.w	r0, #0
 8000722:	4770      	bx	lr
 8000724:	f112 0f61 	cmn.w	r2, #97	@ 0x61
 8000728:	d101      	bne.n	800072e <__aeabi_f2iz+0x3a>
 800072a:	0242      	lsls	r2, r0, #9
 800072c:	d105      	bne.n	800073a <__aeabi_f2iz+0x46>
 800072e:	f010 4000 	ands.w	r0, r0, #2147483648	@ 0x80000000
 8000732:	bf08      	it	eq
 8000734:	f06f 4000 	mvneq.w	r0, #2147483648	@ 0x80000000
 8000738:	4770      	bx	lr
 800073a:	f04f 0000 	mov.w	r0, #0
 800073e:	4770      	bx	lr

08000740 <__aeabi_f2uiz>:
 8000740:	0042      	lsls	r2, r0, #1
 8000742:	d20e      	bcs.n	8000762 <__aeabi_f2uiz+0x22>
 8000744:	f1b2 4ffe 	cmp.w	r2, #2130706432	@ 0x7f000000
 8000748:	d30b      	bcc.n	8000762 <__aeabi_f2uiz+0x22>
 800074a:	f04f 039e 	mov.w	r3, #158	@ 0x9e
 800074e:	ebb3 6212 	subs.w	r2, r3, r2, lsr #24
 8000752:	d409      	bmi.n	8000768 <__aeabi_f2uiz+0x28>
 8000754:	ea4f 2300 	mov.w	r3, r0, lsl #8
 8000758:	f043 4300 	orr.w	r3, r3, #2147483648	@ 0x80000000
 800075c:	fa23 f002 	lsr.w	r0, r3, r2
 8000760:	4770      	bx	lr
 8000762:	f04f 0000 	mov.w	r0, #0
 8000766:	4770      	bx	lr
 8000768:	f112 0f61 	cmn.w	r2, #97	@ 0x61
 800076c:	d101      	bne.n	8000772 <__aeabi_f2uiz+0x32>
 800076e:	0242      	lsls	r2, r0, #9
 8000770:	d102      	bne.n	8000778 <__aeabi_f2uiz+0x38>
 8000772:	f04f 30ff 	mov.w	r0, #4294967295
 8000776:	4770      	bx	lr
 8000778:	f04f 0000 	mov.w	r0, #0
 800077c:	4770      	bx	lr
 800077e:	bf00      	nop

08000780 <Swc_Hmi_ScaleFloatToS16>:
extern Std_ReturnType Swc_SensorFusion_GetResults(uint16 *DfinalPtr, float32 *VrelPtr, float32 *ArelPtr);
extern Std_ReturnType Swc_SafetyLogic_GetResults(uint8 *FcwStatePtr,
                                                 uint8 *BsdLeftStatePtr,
                                                 uint8 *BsdRightStatePtr);
static sint16 Swc_Hmi_ScaleFloatToS16(float32 value)
{
 8000780:	b580      	push	{r7, lr}
 8000782:	b084      	sub	sp, #16
 8000784:	af00      	add	r7, sp, #0
 8000786:	6078      	str	r0, [r7, #4]
    float32 scaled;

    scaled = value * 100.0f;
 8000788:	491e      	ldr	r1, [pc, #120]	@ (8000804 <Swc_Hmi_ScaleFloatToS16+0x84>)
 800078a:	6878      	ldr	r0, [r7, #4]
 800078c:	f7ff fdec 	bl	8000368 <__aeabi_fmul>
 8000790:	4603      	mov	r3, r0
 8000792:	60fb      	str	r3, [r7, #12]

    if (scaled > 32767.0f)
 8000794:	491c      	ldr	r1, [pc, #112]	@ (8000808 <Swc_Hmi_ScaleFloatToS16+0x88>)
 8000796:	68f8      	ldr	r0, [r7, #12]
 8000798:	f7ff ffa2 	bl	80006e0 <__aeabi_fcmpgt>
 800079c:	4603      	mov	r3, r0
 800079e:	2b00      	cmp	r3, #0
 80007a0:	d002      	beq.n	80007a8 <Swc_Hmi_ScaleFloatToS16+0x28>
    {
        scaled = 32767.0f;
 80007a2:	4b19      	ldr	r3, [pc, #100]	@ (8000808 <Swc_Hmi_ScaleFloatToS16+0x88>)
 80007a4:	60fb      	str	r3, [r7, #12]
 80007a6:	e00a      	b.n	80007be <Swc_Hmi_ScaleFloatToS16+0x3e>
    }
    else if (scaled < -32768.0f)
 80007a8:	f04f 4147 	mov.w	r1, #3338665984	@ 0xc7000000
 80007ac:	68f8      	ldr	r0, [r7, #12]
 80007ae:	f7ff ff79 	bl	80006a4 <__aeabi_fcmplt>
 80007b2:	4603      	mov	r3, r0
 80007b4:	2b00      	cmp	r3, #0
 80007b6:	d002      	beq.n	80007be <Swc_Hmi_ScaleFloatToS16+0x3e>
    {
        scaled = -32768.0f;
 80007b8:	f04f 4347 	mov.w	r3, #3338665984	@ 0xc7000000
 80007bc:	60fb      	str	r3, [r7, #12]
    }
    else
    {
    }

    if (scaled >= 0.0f)
 80007be:	f04f 0100 	mov.w	r1, #0
 80007c2:	68f8      	ldr	r0, [r7, #12]
 80007c4:	f7ff ff82 	bl	80006cc <__aeabi_fcmpge>
 80007c8:	4603      	mov	r3, r0
 80007ca:	2b00      	cmp	r3, #0
 80007cc:	d00b      	beq.n	80007e6 <Swc_Hmi_ScaleFloatToS16+0x66>
    {
        return (sint16)(scaled + 0.5f);
 80007ce:	f04f 517c 	mov.w	r1, #1056964608	@ 0x3f000000
 80007d2:	68f8      	ldr	r0, [r7, #12]
 80007d4:	f7ff fcc0 	bl	8000158 <__addsf3>
 80007d8:	4603      	mov	r3, r0
 80007da:	4618      	mov	r0, r3
 80007dc:	f7ff ff8a 	bl	80006f4 <__aeabi_f2iz>
 80007e0:	4603      	mov	r3, r0
 80007e2:	b21b      	sxth	r3, r3
 80007e4:	e00a      	b.n	80007fc <Swc_Hmi_ScaleFloatToS16+0x7c>
    }

    return (sint16)(scaled - 0.5f);
 80007e6:	f04f 517c 	mov.w	r1, #1056964608	@ 0x3f000000
 80007ea:	68f8      	ldr	r0, [r7, #12]
 80007ec:	f7ff fcb2 	bl	8000154 <__aeabi_fsub>
 80007f0:	4603      	mov	r3, r0
 80007f2:	4618      	mov	r0, r3
 80007f4:	f7ff ff7e 	bl	80006f4 <__aeabi_f2iz>
 80007f8:	4603      	mov	r3, r0
 80007fa:	b21b      	sxth	r3, r3
}
 80007fc:	4618      	mov	r0, r3
 80007fe:	3710      	adds	r7, #16
 8000800:	46bd      	mov	sp, r7
 8000802:	bd80      	pop	{r7, pc}
 8000804:	42c80000 	.word	0x42c80000
 8000808:	46fffe00 	.word	0x46fffe00

0800080c <Swc_Hmi_Task_50ms>:

void Swc_Hmi_Task_50ms(void)
{
 800080c:	e92d 47f0 	stmdb	sp!, {r4, r5, r6, r7, r8, r9, sl, lr}
 8000810:	b094      	sub	sp, #80	@ 0x50
 8000812:	af0a      	add	r7, sp, #40	@ 0x28
    uint16 front_ultra = 0xFFFFu;
 8000814:	f64f 73ff 	movw	r3, #65535	@ 0xffff
 8000818:	847b      	strh	r3, [r7, #34]	@ 0x22
    uint16 fd_scaled = 0u;
 800081a:	2300      	movs	r3, #0
 800081c:	843b      	strh	r3, [r7, #32]
    uint16 lidar = 0xFFFFu;
 800081e:	f64f 73ff 	movw	r3, #65535	@ 0xffff
 8000822:	83fb      	strh	r3, [r7, #30]

    uint16 left_ultra = 0xFFFFu;
 8000824:	f64f 73ff 	movw	r3, #65535	@ 0xffff
 8000828:	83bb      	strh	r3, [r7, #28]
    uint16 right_ultra = 0xFFFFu;
 800082a:	f64f 73ff 	movw	r3, #65535	@ 0xffff
 800082e:	837b      	strh	r3, [r7, #26]

    float32 alpha = 0.0f;
 8000830:	f04f 0300 	mov.w	r3, #0
 8000834:	617b      	str	r3, [r7, #20]
    float32 sim_speed = 0.0f;
 8000836:	f04f 0300 	mov.w	r3, #0
 800083a:	613b      	str	r3, [r7, #16]
    uint8 status = 0u;
 800083c:	2300      	movs	r3, #0
 800083e:	73fb      	strb	r3, [r7, #15]

    uint16 d_final = 0xFFFFu;
 8000840:	f64f 73ff 	movw	r3, #65535	@ 0xffff
 8000844:	81bb      	strh	r3, [r7, #12]
    float32 v_rel = 0.0f;
 8000846:	f04f 0300 	mov.w	r3, #0
 800084a:	60bb      	str	r3, [r7, #8]
    float32 a_rel = 0.0f;
 800084c:	f04f 0300 	mov.w	r3, #0
 8000850:	607b      	str	r3, [r7, #4]

    sint16 v_rel_scaled = 0;
 8000852:	2300      	movs	r3, #0
 8000854:	84fb      	strh	r3, [r7, #38]	@ 0x26
    sint16 a_rel_scaled = 0;
 8000856:	2300      	movs	r3, #0
 8000858:	84bb      	strh	r3, [r7, #36]	@ 0x24

    uint8 fcw_state = 0u;
 800085a:	2300      	movs	r3, #0
 800085c:	70fb      	strb	r3, [r7, #3]
    uint8 bsd_left_state = 0u;
 800085e:	2300      	movs	r3, #0
 8000860:	70bb      	strb	r3, [r7, #2]
    uint8 bsd_right_state = 0u;
 8000862:	2300      	movs	r3, #0
 8000864:	707b      	strb	r3, [r7, #1]

    (void)Rte_Read_RpMsg100_FrontObstacle(&front_ultra, &fd_scaled, &lidar);
 8000866:	f107 021e 	add.w	r2, r7, #30
 800086a:	f107 0120 	add.w	r1, r7, #32
 800086e:	f107 0322 	add.w	r3, r7, #34	@ 0x22
 8000872:	4618      	mov	r0, r3
 8000874:	f001 f91c 	bl	8001ab0 <Rte_Read_RpMsg100_FrontObstacle>
    (void)Rte_Read_RpMsg101_BlindSpot(&left_ultra, &right_ultra);
 8000878:	f107 021a 	add.w	r2, r7, #26
 800087c:	f107 031c 	add.w	r3, r7, #28
 8000880:	4611      	mov	r1, r2
 8000882:	4618      	mov	r0, r3
 8000884:	f001 f93e 	bl	8001b04 <Rte_Read_RpMsg101_BlindSpot>
    (void)Rte_Read_RpMsg102_SysStat(&alpha, &sim_speed, &status);
 8000888:	f107 020f 	add.w	r2, r7, #15
 800088c:	f107 0110 	add.w	r1, r7, #16
 8000890:	f107 0314 	add.w	r3, r7, #20
 8000894:	4618      	mov	r0, r3
 8000896:	f001 f955 	bl	8001b44 <Rte_Read_RpMsg102_SysStat>

    (void)Swc_SensorFusion_GetResults(&d_final, &v_rel, &a_rel);
 800089a:	1d3a      	adds	r2, r7, #4
 800089c:	f107 0108 	add.w	r1, r7, #8
 80008a0:	f107 030c 	add.w	r3, r7, #12
 80008a4:	4618      	mov	r0, r3
 80008a6:	f000 fca5 	bl	80011f4 <Swc_SensorFusion_GetResults>
    (void)Swc_SafetyLogic_GetResults(&fcw_state,
 80008aa:	1c7a      	adds	r2, r7, #1
 80008ac:	1cb9      	adds	r1, r7, #2
 80008ae:	1cfb      	adds	r3, r7, #3
 80008b0:	4618      	mov	r0, r3
 80008b2:	f000 fa8f 	bl	8000dd4 <Swc_SafetyLogic_GetResults>
                                     &bsd_left_state,
                                     &bsd_right_state);

    v_rel_scaled = Swc_Hmi_ScaleFloatToS16(v_rel);
 80008b6:	68bb      	ldr	r3, [r7, #8]
 80008b8:	4618      	mov	r0, r3
 80008ba:	f7ff ff61 	bl	8000780 <Swc_Hmi_ScaleFloatToS16>
 80008be:	4603      	mov	r3, r0
 80008c0:	84fb      	strh	r3, [r7, #38]	@ 0x26
    a_rel_scaled = Swc_Hmi_ScaleFloatToS16(a_rel);
 80008c2:	687b      	ldr	r3, [r7, #4]
 80008c4:	4618      	mov	r0, r3
 80008c6:	f7ff ff5b 	bl	8000780 <Swc_Hmi_ScaleFloatToS16>
 80008ca:	4603      	mov	r3, r0
 80008cc:	84bb      	strh	r3, [r7, #36]	@ 0x24

    (void)IoHwAb_PcCom_SendHmiFrame(front_ultra,
 80008ce:	f8b7 c022 	ldrh.w	ip, [r7, #34]	@ 0x22
 80008d2:	f8b7 e020 	ldrh.w	lr, [r7, #32]
 80008d6:	f8b7 801e 	ldrh.w	r8, [r7, #30]
 80008da:	f8b7 901c 	ldrh.w	r9, [r7, #28]
 80008de:	8b7b      	ldrh	r3, [r7, #26]
 80008e0:	697a      	ldr	r2, [r7, #20]
 80008e2:	6939      	ldr	r1, [r7, #16]
 80008e4:	89b8      	ldrh	r0, [r7, #12]
 80008e6:	78fc      	ldrb	r4, [r7, #3]
 80008e8:	78bd      	ldrb	r5, [r7, #2]
 80008ea:	787e      	ldrb	r6, [r7, #1]
 80008ec:	f897 a00f 	ldrb.w	sl, [r7, #15]
 80008f0:	f8cd a024 	str.w	sl, [sp, #36]	@ 0x24
 80008f4:	9608      	str	r6, [sp, #32]
 80008f6:	9507      	str	r5, [sp, #28]
 80008f8:	9406      	str	r4, [sp, #24]
 80008fa:	f9b7 4024 	ldrsh.w	r4, [r7, #36]	@ 0x24
 80008fe:	9405      	str	r4, [sp, #20]
 8000900:	f9b7 4026 	ldrsh.w	r4, [r7, #38]	@ 0x26
 8000904:	9404      	str	r4, [sp, #16]
 8000906:	9003      	str	r0, [sp, #12]
 8000908:	9102      	str	r1, [sp, #8]
 800090a:	9201      	str	r2, [sp, #4]
 800090c:	9300      	str	r3, [sp, #0]
 800090e:	464b      	mov	r3, r9
 8000910:	4642      	mov	r2, r8
 8000912:	4671      	mov	r1, lr
 8000914:	4660      	mov	r0, ip
 8000916:	f000 fcd5 	bl	80012c4 <IoHwAb_PcCom_SendHmiFrame>
                                    a_rel_scaled,
                                    fcw_state,
                                    bsd_left_state,
                                    bsd_right_state,
                                    status);
 800091a:	bf00      	nop
 800091c:	3728      	adds	r7, #40	@ 0x28
 800091e:	46bd      	mov	sp, r7
 8000920:	e8bd 87f0 	ldmia.w	sp!, {r4, r5, r6, r7, r8, r9, sl, pc}

08000924 <Swc_IsValidDistance>:

static uint16 Swc_BsdLeftStableTicks = 0u;
static uint16 Swc_BsdRightStableTicks = 0u;

static uint8 Swc_IsValidDistance(uint16 dist_cm)
{
 8000924:	b480      	push	{r7}
 8000926:	b083      	sub	sp, #12
 8000928:	af00      	add	r7, sp, #0
 800092a:	4603      	mov	r3, r0
 800092c:	80fb      	strh	r3, [r7, #6]
    if ((dist_cm == 0xFFFFu) || (dist_cm == 0u))
 800092e:	88fb      	ldrh	r3, [r7, #6]
 8000930:	f64f 72ff 	movw	r2, #65535	@ 0xffff
 8000934:	4293      	cmp	r3, r2
 8000936:	d002      	beq.n	800093e <Swc_IsValidDistance+0x1a>
 8000938:	88fb      	ldrh	r3, [r7, #6]
 800093a:	2b00      	cmp	r3, #0
 800093c:	d101      	bne.n	8000942 <Swc_IsValidDistance+0x1e>
    {
        return FALSE;
 800093e:	2300      	movs	r3, #0
 8000940:	e000      	b.n	8000944 <Swc_IsValidDistance+0x20>
    }

    return TRUE;
 8000942:	2301      	movs	r3, #1
}
 8000944:	4618      	mov	r0, r3
 8000946:	370c      	adds	r7, #12
 8000948:	46bd      	mov	sp, r7
 800094a:	bc80      	pop	{r7}
 800094c:	4770      	bx	lr

0800094e <Swc_AbsDiff_U16>:

static uint16 Swc_AbsDiff_U16(uint16 a, uint16 b)
{
 800094e:	b480      	push	{r7}
 8000950:	b083      	sub	sp, #12
 8000952:	af00      	add	r7, sp, #0
 8000954:	4603      	mov	r3, r0
 8000956:	460a      	mov	r2, r1
 8000958:	80fb      	strh	r3, [r7, #6]
 800095a:	4613      	mov	r3, r2
 800095c:	80bb      	strh	r3, [r7, #4]
    if (a >= b)
 800095e:	88fa      	ldrh	r2, [r7, #6]
 8000960:	88bb      	ldrh	r3, [r7, #4]
 8000962:	429a      	cmp	r2, r3
 8000964:	d304      	bcc.n	8000970 <Swc_AbsDiff_U16+0x22>
    {
        return (uint16)(a - b);
 8000966:	88fa      	ldrh	r2, [r7, #6]
 8000968:	88bb      	ldrh	r3, [r7, #4]
 800096a:	1ad3      	subs	r3, r2, r3
 800096c:	b29b      	uxth	r3, r3
 800096e:	e003      	b.n	8000978 <Swc_AbsDiff_U16+0x2a>
    }

    return (uint16)(b - a);
 8000970:	88ba      	ldrh	r2, [r7, #4]
 8000972:	88fb      	ldrh	r3, [r7, #6]
 8000974:	1ad3      	subs	r3, r2, r3
 8000976:	b29b      	uxth	r3, r3
}
 8000978:	4618      	mov	r0, r3
 800097a:	370c      	adds	r7, #12
 800097c:	46bd      	mov	sp, r7
 800097e:	bc80      	pop	{r7}
 8000980:	4770      	bx	lr
	...

08000984 <Swc_LimitSimSpeed>:

static float32 Swc_LimitSimSpeed(float32 Sim_speed)
{
 8000984:	b580      	push	{r7, lr}
 8000986:	b082      	sub	sp, #8
 8000988:	af00      	add	r7, sp, #0
 800098a:	6078      	str	r0, [r7, #4]
    if (Sim_speed < FCW_SIM_SPEED_DEADBAND_MPS)
 800098c:	490b      	ldr	r1, [pc, #44]	@ (80009bc <Swc_LimitSimSpeed+0x38>)
 800098e:	6878      	ldr	r0, [r7, #4]
 8000990:	f7ff fe88 	bl	80006a4 <__aeabi_fcmplt>
 8000994:	4603      	mov	r3, r0
 8000996:	2b00      	cmp	r3, #0
 8000998:	d002      	beq.n	80009a0 <Swc_LimitSimSpeed+0x1c>
    {
        return 0.0f;
 800099a:	f04f 0300 	mov.w	r3, #0
 800099e:	e009      	b.n	80009b4 <Swc_LimitSimSpeed+0x30>
    }

    if (Sim_speed > FCW_SIM_SPEED_LIMIT_MPS)
 80009a0:	4907      	ldr	r1, [pc, #28]	@ (80009c0 <Swc_LimitSimSpeed+0x3c>)
 80009a2:	6878      	ldr	r0, [r7, #4]
 80009a4:	f7ff fe9c 	bl	80006e0 <__aeabi_fcmpgt>
 80009a8:	4603      	mov	r3, r0
 80009aa:	2b00      	cmp	r3, #0
 80009ac:	d001      	beq.n	80009b2 <Swc_LimitSimSpeed+0x2e>
    {
        return FCW_SIM_SPEED_LIMIT_MPS;
 80009ae:	4b04      	ldr	r3, [pc, #16]	@ (80009c0 <Swc_LimitSimSpeed+0x3c>)
 80009b0:	e000      	b.n	80009b4 <Swc_LimitSimSpeed+0x30>
    }

    return Sim_speed;
 80009b2:	687b      	ldr	r3, [r7, #4]
}
 80009b4:	4618      	mov	r0, r3
 80009b6:	3708      	adds	r7, #8
 80009b8:	46bd      	mov	sp, r7
 80009ba:	bd80      	pop	{r7, pc}
 80009bc:	3e19999a 	.word	0x3e19999a
 80009c0:	40333333 	.word	0x40333333

080009c4 <Swc_CalcBrakeDistance>:

static float32 Swc_CalcBrakeDistance(float32 Sim_speed)
{
 80009c4:	b590      	push	{r4, r7, lr}
 80009c6:	b085      	sub	sp, #20
 80009c8:	af00      	add	r7, sp, #0
 80009ca:	6078      	str	r0, [r7, #4]
    float32 brake_dist;

    Sim_speed = Swc_LimitSimSpeed(Sim_speed);
 80009cc:	6878      	ldr	r0, [r7, #4]
 80009ce:	f7ff ffd9 	bl	8000984 <Swc_LimitSimSpeed>
 80009d2:	6078      	str	r0, [r7, #4]

    brake_dist = (Sim_speed * FCW_BRAKE_RESPONSE_TIME_S) +
 80009d4:	4910      	ldr	r1, [pc, #64]	@ (8000a18 <Swc_CalcBrakeDistance+0x54>)
 80009d6:	6878      	ldr	r0, [r7, #4]
 80009d8:	f7ff fcc6 	bl	8000368 <__aeabi_fmul>
 80009dc:	4603      	mov	r3, r0
 80009de:	461c      	mov	r4, r3
                 ((Sim_speed * Sim_speed) / (2.0f * FCW_BRAKE_DECEL_MPS2)) +
 80009e0:	6879      	ldr	r1, [r7, #4]
 80009e2:	6878      	ldr	r0, [r7, #4]
 80009e4:	f7ff fcc0 	bl	8000368 <__aeabi_fmul>
 80009e8:	4603      	mov	r3, r0
 80009ea:	f04f 4181 	mov.w	r1, #1082130432	@ 0x40800000
 80009ee:	4618      	mov	r0, r3
 80009f0:	f7ff fd6e 	bl	80004d0 <__aeabi_fdiv>
 80009f4:	4603      	mov	r3, r0
    brake_dist = (Sim_speed * FCW_BRAKE_RESPONSE_TIME_S) +
 80009f6:	4619      	mov	r1, r3
 80009f8:	4620      	mov	r0, r4
 80009fa:	f7ff fbad 	bl	8000158 <__addsf3>
 80009fe:	4603      	mov	r3, r0
 8000a00:	4905      	ldr	r1, [pc, #20]	@ (8000a18 <Swc_CalcBrakeDistance+0x54>)
 8000a02:	4618      	mov	r0, r3
 8000a04:	f7ff fba8 	bl	8000158 <__addsf3>
 8000a08:	4603      	mov	r3, r0
 8000a0a:	60fb      	str	r3, [r7, #12]
                 FCW_BRAKE_SAFETY_MARGIN_M;

    return brake_dist;
 8000a0c:	68fb      	ldr	r3, [r7, #12]
}
 8000a0e:	4618      	mov	r0, r3
 8000a10:	3714      	adds	r7, #20
 8000a12:	46bd      	mov	sp, r7
 8000a14:	bd90      	pop	{r4, r7, pc}
 8000a16:	bf00      	nop
 8000a18:	3e4ccccd 	.word	0x3e4ccccd

08000a1c <Swc_SqrtApprox>:

static float32 Swc_SqrtApprox(float32 x)
{
 8000a1c:	b580      	push	{r7, lr}
 8000a1e:	b084      	sub	sp, #16
 8000a20:	af00      	add	r7, sp, #0
 8000a22:	6078      	str	r0, [r7, #4]
    float32 guess;
    uint8 i;

    if (x <= 0.0f)
 8000a24:	f04f 0100 	mov.w	r1, #0
 8000a28:	6878      	ldr	r0, [r7, #4]
 8000a2a:	f7ff fe45 	bl	80006b8 <__aeabi_fcmple>
 8000a2e:	4603      	mov	r3, r0
 8000a30:	2b00      	cmp	r3, #0
 8000a32:	d002      	beq.n	8000a3a <Swc_SqrtApprox+0x1e>
    {
        return 0.0f;
 8000a34:	f04f 0300 	mov.w	r3, #0
 8000a38:	e028      	b.n	8000a8c <Swc_SqrtApprox+0x70>
    }

    if (x >= 1.0f)
 8000a3a:	f04f 517e 	mov.w	r1, #1065353216	@ 0x3f800000
 8000a3e:	6878      	ldr	r0, [r7, #4]
 8000a40:	f7ff fe44 	bl	80006cc <__aeabi_fcmpge>
 8000a44:	4603      	mov	r3, r0
 8000a46:	2b00      	cmp	r3, #0
 8000a48:	d002      	beq.n	8000a50 <Swc_SqrtApprox+0x34>
    {
        guess = x;
 8000a4a:	687b      	ldr	r3, [r7, #4]
 8000a4c:	60fb      	str	r3, [r7, #12]
 8000a4e:	e002      	b.n	8000a56 <Swc_SqrtApprox+0x3a>
    }
    else
    {
        guess = 1.0f;
 8000a50:	f04f 537e 	mov.w	r3, #1065353216	@ 0x3f800000
 8000a54:	60fb      	str	r3, [r7, #12]
    }

    for (i = 0u; i < 10u; i++)
 8000a56:	2300      	movs	r3, #0
 8000a58:	72fb      	strb	r3, [r7, #11]
 8000a5a:	e013      	b.n	8000a84 <Swc_SqrtApprox+0x68>
    {
        guess = 0.5f * (guess + (x / guess));
 8000a5c:	68f9      	ldr	r1, [r7, #12]
 8000a5e:	6878      	ldr	r0, [r7, #4]
 8000a60:	f7ff fd36 	bl	80004d0 <__aeabi_fdiv>
 8000a64:	4603      	mov	r3, r0
 8000a66:	68f9      	ldr	r1, [r7, #12]
 8000a68:	4618      	mov	r0, r3
 8000a6a:	f7ff fb75 	bl	8000158 <__addsf3>
 8000a6e:	4603      	mov	r3, r0
 8000a70:	f04f 517c 	mov.w	r1, #1056964608	@ 0x3f000000
 8000a74:	4618      	mov	r0, r3
 8000a76:	f7ff fc77 	bl	8000368 <__aeabi_fmul>
 8000a7a:	4603      	mov	r3, r0
 8000a7c:	60fb      	str	r3, [r7, #12]
    for (i = 0u; i < 10u; i++)
 8000a7e:	7afb      	ldrb	r3, [r7, #11]
 8000a80:	3301      	adds	r3, #1
 8000a82:	72fb      	strb	r3, [r7, #11]
 8000a84:	7afb      	ldrb	r3, [r7, #11]
 8000a86:	2b09      	cmp	r3, #9
 8000a88:	d9e8      	bls.n	8000a5c <Swc_SqrtApprox+0x40>
    }

    return guess;
 8000a8a:	68fb      	ldr	r3, [r7, #12]
}
 8000a8c:	4618      	mov	r0, r3
 8000a8e:	3710      	adds	r7, #16
 8000a90:	46bd      	mov	sp, r7
 8000a92:	bd80      	pop	{r7, pc}

08000a94 <Swc_CalcETTC>:
 *
 * phương trình:
 * distance = v*t + 0.5*a*t^2
 */
static float32 Swc_CalcETTC(float32 distance_m, float32 v_closing, float32 a_closing)
{
 8000a94:	b590      	push	{r4, r7, lr}
 8000a96:	b089      	sub	sp, #36	@ 0x24
 8000a98:	af00      	add	r7, sp, #0
 8000a9a:	60f8      	str	r0, [r7, #12]
 8000a9c:	60b9      	str	r1, [r7, #8]
 8000a9e:	607a      	str	r2, [r7, #4]
    float32 discriminant;
    float32 sqrt_discriminant;
    float32 ettc;

    if ((distance_m <= 0.0f) || (v_closing <= FCW_MIN_CLOSING_SPEED_MPS))
 8000aa0:	f04f 0100 	mov.w	r1, #0
 8000aa4:	68f8      	ldr	r0, [r7, #12]
 8000aa6:	f7ff fe07 	bl	80006b8 <__aeabi_fcmple>
 8000aaa:	4603      	mov	r3, r0
 8000aac:	2b00      	cmp	r3, #0
 8000aae:	d106      	bne.n	8000abe <Swc_CalcETTC+0x2a>
 8000ab0:	492d      	ldr	r1, [pc, #180]	@ (8000b68 <Swc_CalcETTC+0xd4>)
 8000ab2:	68b8      	ldr	r0, [r7, #8]
 8000ab4:	f7ff fe00 	bl	80006b8 <__aeabi_fcmple>
 8000ab8:	4603      	mov	r3, r0
 8000aba:	2b00      	cmp	r3, #0
 8000abc:	d001      	beq.n	8000ac2 <Swc_CalcETTC+0x2e>
    {
        return FCW_ETTC_INVALID;
 8000abe:	4b2b      	ldr	r3, [pc, #172]	@ (8000b6c <Swc_CalcETTC+0xd8>)
 8000ac0:	e04e      	b.n	8000b60 <Swc_CalcETTC+0xcc>
    }

    if ((a_closing > -FCW_MIN_ACCEL_ABS) && (a_closing < FCW_MIN_ACCEL_ABS))
 8000ac2:	492b      	ldr	r1, [pc, #172]	@ (8000b70 <Swc_CalcETTC+0xdc>)
 8000ac4:	6878      	ldr	r0, [r7, #4]
 8000ac6:	f7ff fe0b 	bl	80006e0 <__aeabi_fcmpgt>
 8000aca:	4603      	mov	r3, r0
 8000acc:	2b00      	cmp	r3, #0
 8000ace:	d00c      	beq.n	8000aea <Swc_CalcETTC+0x56>
 8000ad0:	4928      	ldr	r1, [pc, #160]	@ (8000b74 <Swc_CalcETTC+0xe0>)
 8000ad2:	6878      	ldr	r0, [r7, #4]
 8000ad4:	f7ff fde6 	bl	80006a4 <__aeabi_fcmplt>
 8000ad8:	4603      	mov	r3, r0
 8000ada:	2b00      	cmp	r3, #0
 8000adc:	d005      	beq.n	8000aea <Swc_CalcETTC+0x56>
    {
        return distance_m / v_closing;
 8000ade:	68b9      	ldr	r1, [r7, #8]
 8000ae0:	68f8      	ldr	r0, [r7, #12]
 8000ae2:	f7ff fcf5 	bl	80004d0 <__aeabi_fdiv>
 8000ae6:	4603      	mov	r3, r0
 8000ae8:	e03a      	b.n	8000b60 <Swc_CalcETTC+0xcc>
    }

    discriminant = (v_closing * v_closing) + (2.0f * a_closing * distance_m);
 8000aea:	68b9      	ldr	r1, [r7, #8]
 8000aec:	68b8      	ldr	r0, [r7, #8]
 8000aee:	f7ff fc3b 	bl	8000368 <__aeabi_fmul>
 8000af2:	4603      	mov	r3, r0
 8000af4:	461c      	mov	r4, r3
 8000af6:	687b      	ldr	r3, [r7, #4]
 8000af8:	4619      	mov	r1, r3
 8000afa:	4618      	mov	r0, r3
 8000afc:	f7ff fb2c 	bl	8000158 <__addsf3>
 8000b00:	4603      	mov	r3, r0
 8000b02:	68f9      	ldr	r1, [r7, #12]
 8000b04:	4618      	mov	r0, r3
 8000b06:	f7ff fc2f 	bl	8000368 <__aeabi_fmul>
 8000b0a:	4603      	mov	r3, r0
 8000b0c:	4619      	mov	r1, r3
 8000b0e:	4620      	mov	r0, r4
 8000b10:	f7ff fb22 	bl	8000158 <__addsf3>
 8000b14:	4603      	mov	r3, r0
 8000b16:	61fb      	str	r3, [r7, #28]

    /*
     * nếu a_closing âm quá mạnh, vật có thể giảm tốc tương đối
     * và không còn va chạm theo mô hình ETTC
     */
    if (discriminant <= 0.0f)
 8000b18:	f04f 0100 	mov.w	r1, #0
 8000b1c:	69f8      	ldr	r0, [r7, #28]
 8000b1e:	f7ff fdcb 	bl	80006b8 <__aeabi_fcmple>
 8000b22:	4603      	mov	r3, r0
 8000b24:	2b00      	cmp	r3, #0
 8000b26:	d001      	beq.n	8000b2c <Swc_CalcETTC+0x98>
    {
        return FCW_ETTC_INVALID;
 8000b28:	4b10      	ldr	r3, [pc, #64]	@ (8000b6c <Swc_CalcETTC+0xd8>)
 8000b2a:	e019      	b.n	8000b60 <Swc_CalcETTC+0xcc>
    }

    sqrt_discriminant = Swc_SqrtApprox(discriminant);
 8000b2c:	69f8      	ldr	r0, [r7, #28]
 8000b2e:	f7ff ff75 	bl	8000a1c <Swc_SqrtApprox>
 8000b32:	61b8      	str	r0, [r7, #24]

    ettc = (-v_closing + sqrt_discriminant) / a_closing;
 8000b34:	68b9      	ldr	r1, [r7, #8]
 8000b36:	69b8      	ldr	r0, [r7, #24]
 8000b38:	f7ff fb0c 	bl	8000154 <__aeabi_fsub>
 8000b3c:	4603      	mov	r3, r0
 8000b3e:	6879      	ldr	r1, [r7, #4]
 8000b40:	4618      	mov	r0, r3
 8000b42:	f7ff fcc5 	bl	80004d0 <__aeabi_fdiv>
 8000b46:	4603      	mov	r3, r0
 8000b48:	617b      	str	r3, [r7, #20]

    if (ettc <= 0.0f)
 8000b4a:	f04f 0100 	mov.w	r1, #0
 8000b4e:	6978      	ldr	r0, [r7, #20]
 8000b50:	f7ff fdb2 	bl	80006b8 <__aeabi_fcmple>
 8000b54:	4603      	mov	r3, r0
 8000b56:	2b00      	cmp	r3, #0
 8000b58:	d001      	beq.n	8000b5e <Swc_CalcETTC+0xca>
    {
        return FCW_ETTC_INVALID;
 8000b5a:	4b04      	ldr	r3, [pc, #16]	@ (8000b6c <Swc_CalcETTC+0xd8>)
 8000b5c:	e000      	b.n	8000b60 <Swc_CalcETTC+0xcc>
    }

    return ettc;
 8000b5e:	697b      	ldr	r3, [r7, #20]
}
 8000b60:	4618      	mov	r0, r3
 8000b62:	3724      	adds	r7, #36	@ 0x24
 8000b64:	46bd      	mov	sp, r7
 8000b66:	bd90      	pop	{r4, r7, pc}
 8000b68:	3d4ccccd 	.word	0x3d4ccccd
 8000b6c:	4479c000 	.word	0x4479c000
 8000b70:	bc23d70a 	.word	0xbc23d70a
 8000b74:	3c23d70a 	.word	0x3c23d70a

08000b78 <Swc_UpdateBsdSide>:
 * - nếu không có vật hoặc vật ngoài ngưỡng: tắt cảnh báo và reset bộ đếm
 * - nếu có vật trong ngưỡng và khoảng cách còn thay đổi: bật cảnh báo
 * - nếu có vật trong ngưỡng nhưng đứng yên quá lâu: tắt cảnh báo
 */
static uint8 Swc_UpdateBsdSide(uint16 dist_cm, uint16 *LastDistPtr, uint16 *StableTicksPtr)
{
 8000b78:	b580      	push	{r7, lr}
 8000b7a:	b086      	sub	sp, #24
 8000b7c:	af00      	add	r7, sp, #0
 8000b7e:	4603      	mov	r3, r0
 8000b80:	60b9      	str	r1, [r7, #8]
 8000b82:	607a      	str	r2, [r7, #4]
 8000b84:	81fb      	strh	r3, [r7, #14]
    uint16 diff;

    if ((LastDistPtr == NULL_PTR) || (StableTicksPtr == NULL_PTR))
 8000b86:	68bb      	ldr	r3, [r7, #8]
 8000b88:	2b00      	cmp	r3, #0
 8000b8a:	d002      	beq.n	8000b92 <Swc_UpdateBsdSide+0x1a>
 8000b8c:	687b      	ldr	r3, [r7, #4]
 8000b8e:	2b00      	cmp	r3, #0
 8000b90:	d101      	bne.n	8000b96 <Swc_UpdateBsdSide+0x1e>
    {
        return FALSE;
 8000b92:	2300      	movs	r3, #0
 8000b94:	e042      	b.n	8000c1c <Swc_UpdateBsdSide+0xa4>
    }

    if ((Swc_IsValidDistance(dist_cm) == FALSE) || (dist_cm > BSD_DISTANCE_THRESHOLD_CM))
 8000b96:	89fb      	ldrh	r3, [r7, #14]
 8000b98:	4618      	mov	r0, r3
 8000b9a:	f7ff fec3 	bl	8000924 <Swc_IsValidDistance>
 8000b9e:	4603      	mov	r3, r0
 8000ba0:	2b00      	cmp	r3, #0
 8000ba2:	d002      	beq.n	8000baa <Swc_UpdateBsdSide+0x32>
 8000ba4:	89fb      	ldrh	r3, [r7, #14]
 8000ba6:	2b3c      	cmp	r3, #60	@ 0x3c
 8000ba8:	d908      	bls.n	8000bbc <Swc_UpdateBsdSide+0x44>
    {
        *LastDistPtr = 0xFFFFu;
 8000baa:	68bb      	ldr	r3, [r7, #8]
 8000bac:	f64f 72ff 	movw	r2, #65535	@ 0xffff
 8000bb0:	801a      	strh	r2, [r3, #0]
        *StableTicksPtr = 0u;
 8000bb2:	687b      	ldr	r3, [r7, #4]
 8000bb4:	2200      	movs	r2, #0
 8000bb6:	801a      	strh	r2, [r3, #0]
        return FALSE;
 8000bb8:	2300      	movs	r3, #0
 8000bba:	e02f      	b.n	8000c1c <Swc_UpdateBsdSide+0xa4>
    }

    if (*LastDistPtr == 0xFFFFu)
 8000bbc:	68bb      	ldr	r3, [r7, #8]
 8000bbe:	881b      	ldrh	r3, [r3, #0]
 8000bc0:	f64f 72ff 	movw	r2, #65535	@ 0xffff
 8000bc4:	4293      	cmp	r3, r2
 8000bc6:	d107      	bne.n	8000bd8 <Swc_UpdateBsdSide+0x60>
    {
        *LastDistPtr = dist_cm;
 8000bc8:	68bb      	ldr	r3, [r7, #8]
 8000bca:	89fa      	ldrh	r2, [r7, #14]
 8000bcc:	801a      	strh	r2, [r3, #0]
        *StableTicksPtr = 0u;
 8000bce:	687b      	ldr	r3, [r7, #4]
 8000bd0:	2200      	movs	r2, #0
 8000bd2:	801a      	strh	r2, [r3, #0]
        return TRUE;
 8000bd4:	2301      	movs	r3, #1
 8000bd6:	e021      	b.n	8000c1c <Swc_UpdateBsdSide+0xa4>
    }

    diff = Swc_AbsDiff_U16(dist_cm, *LastDistPtr);
 8000bd8:	68bb      	ldr	r3, [r7, #8]
 8000bda:	881a      	ldrh	r2, [r3, #0]
 8000bdc:	89fb      	ldrh	r3, [r7, #14]
 8000bde:	4611      	mov	r1, r2
 8000be0:	4618      	mov	r0, r3
 8000be2:	f7ff feb4 	bl	800094e <Swc_AbsDiff_U16>
 8000be6:	4603      	mov	r3, r0
 8000be8:	82fb      	strh	r3, [r7, #22]

    if (diff > BSD_STABLE_DELTA_CM)
 8000bea:	8afb      	ldrh	r3, [r7, #22]
 8000bec:	2b05      	cmp	r3, #5
 8000bee:	d907      	bls.n	8000c00 <Swc_UpdateBsdSide+0x88>
    {
        *LastDistPtr = dist_cm;
 8000bf0:	68bb      	ldr	r3, [r7, #8]
 8000bf2:	89fa      	ldrh	r2, [r7, #14]
 8000bf4:	801a      	strh	r2, [r3, #0]
        *StableTicksPtr = 0u;
 8000bf6:	687b      	ldr	r3, [r7, #4]
 8000bf8:	2200      	movs	r2, #0
 8000bfa:	801a      	strh	r2, [r3, #0]
        return TRUE;
 8000bfc:	2301      	movs	r3, #1
 8000bfe:	e00d      	b.n	8000c1c <Swc_UpdateBsdSide+0xa4>
    }

    if (*StableTicksPtr < BSD_STATIONARY_TIMEOUT_TICKS)
 8000c00:	687b      	ldr	r3, [r7, #4]
 8000c02:	881b      	ldrh	r3, [r3, #0]
 8000c04:	f5b3 7ffa 	cmp.w	r3, #500	@ 0x1f4
 8000c08:	d207      	bcs.n	8000c1a <Swc_UpdateBsdSide+0xa2>
    {
        (*StableTicksPtr)++;
 8000c0a:	687b      	ldr	r3, [r7, #4]
 8000c0c:	881b      	ldrh	r3, [r3, #0]
 8000c0e:	3301      	adds	r3, #1
 8000c10:	b29a      	uxth	r2, r3
 8000c12:	687b      	ldr	r3, [r7, #4]
 8000c14:	801a      	strh	r2, [r3, #0]
        return TRUE;
 8000c16:	2301      	movs	r3, #1
 8000c18:	e000      	b.n	8000c1c <Swc_UpdateBsdSide+0xa4>
    }

    return FALSE;
 8000c1a:	2300      	movs	r3, #0
}
 8000c1c:	4618      	mov	r0, r3
 8000c1e:	3718      	adds	r7, #24
 8000c20:	46bd      	mov	sp, r7
 8000c22:	bd80      	pop	{r7, pc}

08000c24 <Swc_SafetyLogic_Task_10ms>:

void Swc_SafetyLogic_Task_10ms(void)
{
 8000c24:	b580      	push	{r7, lr}
 8000c26:	b08a      	sub	sp, #40	@ 0x28
 8000c28:	af00      	add	r7, sp, #0
    uint16 dfinal = 0xFFFFu;
 8000c2a:	f64f 73ff 	movw	r3, #65535	@ 0xffff
 8000c2e:	833b      	strh	r3, [r7, #24]
    float32 vrel = 0.0f;
 8000c30:	f04f 0300 	mov.w	r3, #0
 8000c34:	617b      	str	r3, [r7, #20]
    float32 arel = 0.0f;
 8000c36:	f04f 0300 	mov.w	r3, #0
 8000c3a:	613b      	str	r3, [r7, #16]

    uint16 left_ultra = 0xFFFFu;
 8000c3c:	f64f 73ff 	movw	r3, #65535	@ 0xffff
 8000c40:	81fb      	strh	r3, [r7, #14]
    uint16 right_ultra = 0xFFFFu;
 8000c42:	f64f 73ff 	movw	r3, #65535	@ 0xffff
 8000c46:	81bb      	strh	r3, [r7, #12]

    float32 alpha = 0.0f;
 8000c48:	f04f 0300 	mov.w	r3, #0
 8000c4c:	60bb      	str	r3, [r7, #8]
    float32 Sim_speed = 0.0f;
 8000c4e:	f04f 0300 	mov.w	r3, #0
 8000c52:	607b      	str	r3, [r7, #4]
    uint8 status = 0u;
 8000c54:	2300      	movs	r3, #0
 8000c56:	70fb      	strb	r3, [r7, #3]

    float32 distance_m = 0.0f;
 8000c58:	f04f 0300 	mov.w	r3, #0
 8000c5c:	623b      	str	r3, [r7, #32]
    float32 ettc = FCW_ETTC_INVALID;
 8000c5e:	4b51      	ldr	r3, [pc, #324]	@ (8000da4 <Swc_SafetyLogic_Task_10ms+0x180>)
 8000c60:	627b      	str	r3, [r7, #36]	@ 0x24
    float32 brake_dist = 0.0f;
 8000c62:	f04f 0300 	mov.w	r3, #0
 8000c66:	61fb      	str	r3, [r7, #28]

    uint8 bsd_left_warning;
    uint8 bsd_right_warning;

    (void)Swc_SensorFusion_GetResults(&dfinal, &vrel, &arel);
 8000c68:	f107 0210 	add.w	r2, r7, #16
 8000c6c:	f107 0114 	add.w	r1, r7, #20
 8000c70:	f107 0318 	add.w	r3, r7, #24
 8000c74:	4618      	mov	r0, r3
 8000c76:	f000 fabd 	bl	80011f4 <Swc_SensorFusion_GetResults>
    (void)Rte_Read_RpMsg101_BlindSpot(&left_ultra, &right_ultra);
 8000c7a:	f107 020c 	add.w	r2, r7, #12
 8000c7e:	f107 030e 	add.w	r3, r7, #14
 8000c82:	4611      	mov	r1, r2
 8000c84:	4618      	mov	r0, r3
 8000c86:	f000 ff3d 	bl	8001b04 <Rte_Read_RpMsg101_BlindSpot>
    (void)Rte_Read_RpMsg102_SysStat(&alpha, &Sim_speed, &status);
 8000c8a:	1cfa      	adds	r2, r7, #3
 8000c8c:	1d39      	adds	r1, r7, #4
 8000c8e:	f107 0308 	add.w	r3, r7, #8
 8000c92:	4618      	mov	r0, r3
 8000c94:	f000 ff56 	bl	8001b44 <Rte_Read_RpMsg102_SysStat>
     *
     * quy ước:
     * vrel > 0: vật đang tiến lại gần
     * arel > 0: tốc độ tiến lại gần đang tăng
     */
    Swc_Buffer_FcwState = 0u;
 8000c98:	4b43      	ldr	r3, [pc, #268]	@ (8000da8 <Swc_SafetyLogic_Task_10ms+0x184>)
 8000c9a:	2200      	movs	r2, #0
 8000c9c:	701a      	strb	r2, [r3, #0]

    if (Swc_IsValidDistance(dfinal) == TRUE)
 8000c9e:	8b3b      	ldrh	r3, [r7, #24]
 8000ca0:	4618      	mov	r0, r3
 8000ca2:	f7ff fe3f 	bl	8000924 <Swc_IsValidDistance>
 8000ca6:	4603      	mov	r3, r0
 8000ca8:	2b01      	cmp	r3, #1
 8000caa:	d154      	bne.n	8000d56 <Swc_SafetyLogic_Task_10ms+0x132>
    {
        distance_m = (float32)dfinal / 100.0f;
 8000cac:	8b3b      	ldrh	r3, [r7, #24]
 8000cae:	4618      	mov	r0, r3
 8000cb0:	f7ff fb02 	bl	80002b8 <__aeabi_ui2f>
 8000cb4:	4603      	mov	r3, r0
 8000cb6:	493d      	ldr	r1, [pc, #244]	@ (8000dac <Swc_SafetyLogic_Task_10ms+0x188>)
 8000cb8:	4618      	mov	r0, r3
 8000cba:	f7ff fc09 	bl	80004d0 <__aeabi_fdiv>
 8000cbe:	4603      	mov	r3, r0
 8000cc0:	623b      	str	r3, [r7, #32]
        brake_dist = Swc_CalcBrakeDistance(Sim_speed);
 8000cc2:	687b      	ldr	r3, [r7, #4]
 8000cc4:	4618      	mov	r0, r3
 8000cc6:	f7ff fe7d 	bl	80009c4 <Swc_CalcBrakeDistance>
 8000cca:	61f8      	str	r0, [r7, #28]

        if (vrel > FCW_MIN_CLOSING_SPEED_MPS)
 8000ccc:	697b      	ldr	r3, [r7, #20]
 8000cce:	4938      	ldr	r1, [pc, #224]	@ (8000db0 <Swc_SafetyLogic_Task_10ms+0x18c>)
 8000cd0:	4618      	mov	r0, r3
 8000cd2:	f7ff fd05 	bl	80006e0 <__aeabi_fcmpgt>
 8000cd6:	4603      	mov	r3, r0
 8000cd8:	2b00      	cmp	r3, #0
 8000cda:	d007      	beq.n	8000cec <Swc_SafetyLogic_Task_10ms+0xc8>
        {
            ettc = Swc_CalcETTC(distance_m, vrel, arel);
 8000cdc:	697b      	ldr	r3, [r7, #20]
 8000cde:	693a      	ldr	r2, [r7, #16]
 8000ce0:	4619      	mov	r1, r3
 8000ce2:	6a38      	ldr	r0, [r7, #32]
 8000ce4:	f7ff fed6 	bl	8000a94 <Swc_CalcETTC>
 8000ce8:	6278      	str	r0, [r7, #36]	@ 0x24
 8000cea:	e001      	b.n	8000cf0 <Swc_SafetyLogic_Task_10ms+0xcc>
        }
        else
        {
            ettc = FCW_ETTC_INVALID;
 8000cec:	4b2d      	ldr	r3, [pc, #180]	@ (8000da4 <Swc_SafetyLogic_Task_10ms+0x180>)
 8000cee:	627b      	str	r3, [r7, #36]	@ 0x24
        }

        if ((dfinal <= FCW_DISTANCE_HIGH_CM) ||
 8000cf0:	8b3b      	ldrh	r3, [r7, #24]
 8000cf2:	2b23      	cmp	r3, #35	@ 0x23
 8000cf4:	d90e      	bls.n	8000d14 <Swc_SafetyLogic_Task_10ms+0xf0>
 8000cf6:	f04f 517f 	mov.w	r1, #1069547520	@ 0x3fc00000
 8000cfa:	6a78      	ldr	r0, [r7, #36]	@ 0x24
 8000cfc:	f7ff fcdc 	bl	80006b8 <__aeabi_fcmple>
 8000d00:	4603      	mov	r3, r0
 8000d02:	2b00      	cmp	r3, #0
 8000d04:	d106      	bne.n	8000d14 <Swc_SafetyLogic_Task_10ms+0xf0>
            (ettc <= FCW_ETTC_HIGH_S) ||
 8000d06:	69f9      	ldr	r1, [r7, #28]
 8000d08:	6a38      	ldr	r0, [r7, #32]
 8000d0a:	f7ff fcd5 	bl	80006b8 <__aeabi_fcmple>
 8000d0e:	4603      	mov	r3, r0
 8000d10:	2b00      	cmp	r3, #0
 8000d12:	d003      	beq.n	8000d1c <Swc_SafetyLogic_Task_10ms+0xf8>
            (distance_m <= brake_dist))
        {
            Swc_Buffer_FcwState = 2u;
 8000d14:	4b24      	ldr	r3, [pc, #144]	@ (8000da8 <Swc_SafetyLogic_Task_10ms+0x184>)
 8000d16:	2202      	movs	r2, #2
 8000d18:	701a      	strb	r2, [r3, #0]
 8000d1a:	e01c      	b.n	8000d56 <Swc_SafetyLogic_Task_10ms+0x132>
        }
        else if ((dfinal <= FCW_DISTANCE_MEDIUM_CM) ||
 8000d1c:	8b3b      	ldrh	r3, [r7, #24]
 8000d1e:	2b64      	cmp	r3, #100	@ 0x64
 8000d20:	d912      	bls.n	8000d48 <Swc_SafetyLogic_Task_10ms+0x124>
 8000d22:	4924      	ldr	r1, [pc, #144]	@ (8000db4 <Swc_SafetyLogic_Task_10ms+0x190>)
 8000d24:	6a78      	ldr	r0, [r7, #36]	@ 0x24
 8000d26:	f7ff fcc7 	bl	80006b8 <__aeabi_fcmple>
 8000d2a:	4603      	mov	r3, r0
 8000d2c:	2b00      	cmp	r3, #0
 8000d2e:	d10b      	bne.n	8000d48 <Swc_SafetyLogic_Task_10ms+0x124>
                 (ettc <= FCW_ETTC_MEDIUM_S) ||
                 (distance_m <= (brake_dist + FCW_BRAKE_WARNING_MARGIN_M)))
 8000d30:	4921      	ldr	r1, [pc, #132]	@ (8000db8 <Swc_SafetyLogic_Task_10ms+0x194>)
 8000d32:	69f8      	ldr	r0, [r7, #28]
 8000d34:	f7ff fa10 	bl	8000158 <__addsf3>
 8000d38:	4603      	mov	r3, r0
                 (ettc <= FCW_ETTC_MEDIUM_S) ||
 8000d3a:	4619      	mov	r1, r3
 8000d3c:	6a38      	ldr	r0, [r7, #32]
 8000d3e:	f7ff fcbb 	bl	80006b8 <__aeabi_fcmple>
 8000d42:	4603      	mov	r3, r0
 8000d44:	2b00      	cmp	r3, #0
 8000d46:	d003      	beq.n	8000d50 <Swc_SafetyLogic_Task_10ms+0x12c>
        {
            Swc_Buffer_FcwState = 1u;
 8000d48:	4b17      	ldr	r3, [pc, #92]	@ (8000da8 <Swc_SafetyLogic_Task_10ms+0x184>)
 8000d4a:	2201      	movs	r2, #1
 8000d4c:	701a      	strb	r2, [r3, #0]
 8000d4e:	e002      	b.n	8000d56 <Swc_SafetyLogic_Task_10ms+0x132>
        }
        else
        {
            Swc_Buffer_FcwState = 0u;
 8000d50:	4b15      	ldr	r3, [pc, #84]	@ (8000da8 <Swc_SafetyLogic_Task_10ms+0x184>)
 8000d52:	2200      	movs	r2, #0
 8000d54:	701a      	strb	r2, [r3, #0]
    /*
     * BSD:
     * 0 = không cảnh báo
     * 1 = có vật trong vùng cảnh báo
     */
    Swc_Buffer_BsdLeftState = 0u;
 8000d56:	4b19      	ldr	r3, [pc, #100]	@ (8000dbc <Swc_SafetyLogic_Task_10ms+0x198>)
 8000d58:	2200      	movs	r2, #0
 8000d5a:	701a      	strb	r2, [r3, #0]
    Swc_Buffer_BsdRightState = 0u;
 8000d5c:	4b18      	ldr	r3, [pc, #96]	@ (8000dc0 <Swc_SafetyLogic_Task_10ms+0x19c>)
 8000d5e:	2200      	movs	r2, #0
 8000d60:	701a      	strb	r2, [r3, #0]

    bsd_left_warning = Swc_UpdateBsdSide(
 8000d62:	89fb      	ldrh	r3, [r7, #14]
 8000d64:	4a17      	ldr	r2, [pc, #92]	@ (8000dc4 <Swc_SafetyLogic_Task_10ms+0x1a0>)
 8000d66:	4918      	ldr	r1, [pc, #96]	@ (8000dc8 <Swc_SafetyLogic_Task_10ms+0x1a4>)
 8000d68:	4618      	mov	r0, r3
 8000d6a:	f7ff ff05 	bl	8000b78 <Swc_UpdateBsdSide>
 8000d6e:	4603      	mov	r3, r0
 8000d70:	76fb      	strb	r3, [r7, #27]
        left_ultra,
        &Swc_BsdLeftLastDist,
        &Swc_BsdLeftStableTicks);

    bsd_right_warning = Swc_UpdateBsdSide(
 8000d72:	89bb      	ldrh	r3, [r7, #12]
 8000d74:	4a15      	ldr	r2, [pc, #84]	@ (8000dcc <Swc_SafetyLogic_Task_10ms+0x1a8>)
 8000d76:	4916      	ldr	r1, [pc, #88]	@ (8000dd0 <Swc_SafetyLogic_Task_10ms+0x1ac>)
 8000d78:	4618      	mov	r0, r3
 8000d7a:	f7ff fefd 	bl	8000b78 <Swc_UpdateBsdSide>
 8000d7e:	4603      	mov	r3, r0
 8000d80:	76bb      	strb	r3, [r7, #26]
        right_ultra,
        &Swc_BsdRightLastDist,
        &Swc_BsdRightStableTicks);

    if (bsd_left_warning == TRUE)
 8000d82:	7efb      	ldrb	r3, [r7, #27]
 8000d84:	2b01      	cmp	r3, #1
 8000d86:	d102      	bne.n	8000d8e <Swc_SafetyLogic_Task_10ms+0x16a>
    {
        Swc_Buffer_BsdLeftState = 1u;
 8000d88:	4b0c      	ldr	r3, [pc, #48]	@ (8000dbc <Swc_SafetyLogic_Task_10ms+0x198>)
 8000d8a:	2201      	movs	r2, #1
 8000d8c:	701a      	strb	r2, [r3, #0]
    }

    if (bsd_right_warning == TRUE)
 8000d8e:	7ebb      	ldrb	r3, [r7, #26]
 8000d90:	2b01      	cmp	r3, #1
 8000d92:	d102      	bne.n	8000d9a <Swc_SafetyLogic_Task_10ms+0x176>
    {
        Swc_Buffer_BsdRightState = 1u;
 8000d94:	4b0a      	ldr	r3, [pc, #40]	@ (8000dc0 <Swc_SafetyLogic_Task_10ms+0x19c>)
 8000d96:	2201      	movs	r2, #1
 8000d98:	701a      	strb	r2, [r3, #0]
    }
}
 8000d9a:	bf00      	nop
 8000d9c:	3728      	adds	r7, #40	@ 0x28
 8000d9e:	46bd      	mov	sp, r7
 8000da0:	bd80      	pop	{r7, pc}
 8000da2:	bf00      	nop
 8000da4:	4479c000 	.word	0x4479c000
 8000da8:	20000038 	.word	0x20000038
 8000dac:	42c80000 	.word	0x42c80000
 8000db0:	3d4ccccd 	.word	0x3d4ccccd
 8000db4:	40400000 	.word	0x40400000
 8000db8:	3f19999a 	.word	0x3f19999a
 8000dbc:	20000039 	.word	0x20000039
 8000dc0:	2000003a 	.word	0x2000003a
 8000dc4:	2000003c 	.word	0x2000003c
 8000dc8:	20000000 	.word	0x20000000
 8000dcc:	2000003e 	.word	0x2000003e
 8000dd0:	20000002 	.word	0x20000002

08000dd4 <Swc_SafetyLogic_GetResults>:

Std_ReturnType Swc_SafetyLogic_GetResults(uint8 *FcwStatePtr,
                                          uint8 *BsdLeftStatePtr,
                                          uint8 *BsdRightStatePtr)
{
 8000dd4:	b480      	push	{r7}
 8000dd6:	b085      	sub	sp, #20
 8000dd8:	af00      	add	r7, sp, #0
 8000dda:	60f8      	str	r0, [r7, #12]
 8000ddc:	60b9      	str	r1, [r7, #8]
 8000dde:	607a      	str	r2, [r7, #4]
    if ((FcwStatePtr == NULL_PTR) ||
 8000de0:	68fb      	ldr	r3, [r7, #12]
 8000de2:	2b00      	cmp	r3, #0
 8000de4:	d005      	beq.n	8000df2 <Swc_SafetyLogic_GetResults+0x1e>
 8000de6:	68bb      	ldr	r3, [r7, #8]
 8000de8:	2b00      	cmp	r3, #0
 8000dea:	d002      	beq.n	8000df2 <Swc_SafetyLogic_GetResults+0x1e>
        (BsdLeftStatePtr == NULL_PTR) ||
 8000dec:	687b      	ldr	r3, [r7, #4]
 8000dee:	2b00      	cmp	r3, #0
 8000df0:	d101      	bne.n	8000df6 <Swc_SafetyLogic_GetResults+0x22>
        (BsdRightStatePtr == NULL_PTR))
    {
        return E_NOT_OK;
 8000df2:	2301      	movs	r3, #1
 8000df4:	e00c      	b.n	8000e10 <Swc_SafetyLogic_GetResults+0x3c>
    }

    *FcwStatePtr = Swc_Buffer_FcwState;
 8000df6:	4b09      	ldr	r3, [pc, #36]	@ (8000e1c <Swc_SafetyLogic_GetResults+0x48>)
 8000df8:	781a      	ldrb	r2, [r3, #0]
 8000dfa:	68fb      	ldr	r3, [r7, #12]
 8000dfc:	701a      	strb	r2, [r3, #0]
    *BsdLeftStatePtr = Swc_Buffer_BsdLeftState;
 8000dfe:	4b08      	ldr	r3, [pc, #32]	@ (8000e20 <Swc_SafetyLogic_GetResults+0x4c>)
 8000e00:	781a      	ldrb	r2, [r3, #0]
 8000e02:	68bb      	ldr	r3, [r7, #8]
 8000e04:	701a      	strb	r2, [r3, #0]
    *BsdRightStatePtr = Swc_Buffer_BsdRightState;
 8000e06:	4b07      	ldr	r3, [pc, #28]	@ (8000e24 <Swc_SafetyLogic_GetResults+0x50>)
 8000e08:	781a      	ldrb	r2, [r3, #0]
 8000e0a:	687b      	ldr	r3, [r7, #4]
 8000e0c:	701a      	strb	r2, [r3, #0]

    return E_OK;
 8000e0e:	2300      	movs	r3, #0
 8000e10:	4618      	mov	r0, r3
 8000e12:	3714      	adds	r7, #20
 8000e14:	46bd      	mov	sp, r7
 8000e16:	bc80      	pop	{r7}
 8000e18:	4770      	bx	lr
 8000e1a:	bf00      	nop
 8000e1c:	20000038 	.word	0x20000038
 8000e20:	20000039 	.word	0x20000039
 8000e24:	2000003a 	.word	0x2000003a

08000e28 <Swc_IsValidDistance>:
static uint16  Swc_Buffer_Dfinal = 0xFFFFu;
static float32 Swc_Buffer_Vrel = 0.0f;
static float32 Swc_Buffer_Arel = 0.0f;

static uint8 Swc_IsValidDistance(uint16 dist_cm)
{
 8000e28:	b480      	push	{r7}
 8000e2a:	b083      	sub	sp, #12
 8000e2c:	af00      	add	r7, sp, #0
 8000e2e:	4603      	mov	r3, r0
 8000e30:	80fb      	strh	r3, [r7, #6]
    if ((dist_cm == 0xFFFFu) || (dist_cm == 0u)) {
 8000e32:	88fb      	ldrh	r3, [r7, #6]
 8000e34:	f64f 72ff 	movw	r2, #65535	@ 0xffff
 8000e38:	4293      	cmp	r3, r2
 8000e3a:	d002      	beq.n	8000e42 <Swc_IsValidDistance+0x1a>
 8000e3c:	88fb      	ldrh	r3, [r7, #6]
 8000e3e:	2b00      	cmp	r3, #0
 8000e40:	d101      	bne.n	8000e46 <Swc_IsValidDistance+0x1e>
        return FALSE;
 8000e42:	2300      	movs	r3, #0
 8000e44:	e000      	b.n	8000e48 <Swc_IsValidDistance+0x20>
    }

    return TRUE;
 8000e46:	2301      	movs	r3, #1
}
 8000e48:	4618      	mov	r0, r3
 8000e4a:	370c      	adds	r7, #12
 8000e4c:	46bd      	mov	sp, r7
 8000e4e:	bc80      	pop	{r7}
 8000e50:	4770      	bx	lr

08000e52 <Swc_ClampFloat>:

static float32 Swc_ClampFloat(float32 value, float32 min_value, float32 max_value)
{
 8000e52:	b580      	push	{r7, lr}
 8000e54:	b084      	sub	sp, #16
 8000e56:	af00      	add	r7, sp, #0
 8000e58:	60f8      	str	r0, [r7, #12]
 8000e5a:	60b9      	str	r1, [r7, #8]
 8000e5c:	607a      	str	r2, [r7, #4]
    if (value < min_value) {
 8000e5e:	68b9      	ldr	r1, [r7, #8]
 8000e60:	68f8      	ldr	r0, [r7, #12]
 8000e62:	f7ff fc1f 	bl	80006a4 <__aeabi_fcmplt>
 8000e66:	4603      	mov	r3, r0
 8000e68:	2b00      	cmp	r3, #0
 8000e6a:	d001      	beq.n	8000e70 <Swc_ClampFloat+0x1e>
        return min_value;
 8000e6c:	68bb      	ldr	r3, [r7, #8]
 8000e6e:	e009      	b.n	8000e84 <Swc_ClampFloat+0x32>
    }

    if (value > max_value) {
 8000e70:	6879      	ldr	r1, [r7, #4]
 8000e72:	68f8      	ldr	r0, [r7, #12]
 8000e74:	f7ff fc34 	bl	80006e0 <__aeabi_fcmpgt>
 8000e78:	4603      	mov	r3, r0
 8000e7a:	2b00      	cmp	r3, #0
 8000e7c:	d001      	beq.n	8000e82 <Swc_ClampFloat+0x30>
        return max_value;
 8000e7e:	687b      	ldr	r3, [r7, #4]
 8000e80:	e000      	b.n	8000e84 <Swc_ClampFloat+0x32>
    }

    return value;
 8000e82:	68fb      	ldr	r3, [r7, #12]
}
 8000e84:	4618      	mov	r0, r3
 8000e86:	3710      	adds	r7, #16
 8000e88:	46bd      	mov	sp, r7
 8000e8a:	bd80      	pop	{r7, pc}

08000e8c <Swc_SensorFusion_Task_10ms>:

void Swc_SensorFusion_Task_10ms(void)
{
 8000e8c:	b5b0      	push	{r4, r5, r7, lr}
 8000e8e:	b08e      	sub	sp, #56	@ 0x38
 8000e90:	af00      	add	r7, sp, #0
    uint16 front_ultra = 0xFFFFu;
 8000e92:	f64f 73ff 	movw	r3, #65535	@ 0xffff
 8000e96:	827b      	strh	r3, [r7, #18]
    uint16 fd_scaled = 0u;
 8000e98:	2300      	movs	r3, #0
 8000e9a:	823b      	strh	r3, [r7, #16]
    uint16 lidar = 0xFFFFu;
 8000e9c:	f64f 73ff 	movw	r3, #65535	@ 0xffff
 8000ea0:	81fb      	strh	r3, [r7, #14]

    float32 alpha = 0.0f;
 8000ea2:	f04f 0300 	mov.w	r3, #0
 8000ea6:	60bb      	str	r3, [r7, #8]
    float32 sim_speed = 0.0f;
 8000ea8:	f04f 0300 	mov.w	r3, #0
 8000eac:	607b      	str	r3, [r7, #4]
    uint8 status = 0u;
 8000eae:	2300      	movs	r3, #0
 8000eb0:	70fb      	strb	r3, [r7, #3]

    static float32 prev_vrel = 0.0f;
    static float32 prev_arel = 0.0f;

    float32 alpha_used;
    float32 dfinal_now = 0.0f;
 8000eb2:	f04f 0300 	mov.w	r3, #0
 8000eb6:	637b      	str	r3, [r7, #52]	@ 0x34
    float32 delta_d = 0.0f;
 8000eb8:	f04f 0300 	mov.w	r3, #0
 8000ebc:	62fb      	str	r3, [r7, #44]	@ 0x2c
    float32 vrel_now;
    float32 arel_raw;

    uint8 lidar_valid;
    uint8 ultra_valid;
    uint8 dfinal_valid = FALSE;
 8000ebe:	2300      	movs	r3, #0
 8000ec0:	f887 3033 	strb.w	r3, [r7, #51]	@ 0x33

    (void)sim_speed;
    (void)status;

    (void)Rte_Read_RpMsg100_FrontObstacle(&front_ultra, &fd_scaled, &lidar);
 8000ec4:	f107 020e 	add.w	r2, r7, #14
 8000ec8:	f107 0110 	add.w	r1, r7, #16
 8000ecc:	f107 0312 	add.w	r3, r7, #18
 8000ed0:	4618      	mov	r0, r3
 8000ed2:	f000 fded 	bl	8001ab0 <Rte_Read_RpMsg100_FrontObstacle>
    (void)Rte_Read_RpMsg102_SysStat(&alpha, &sim_speed, &status);
 8000ed6:	1cfa      	adds	r2, r7, #3
 8000ed8:	1d39      	adds	r1, r7, #4
 8000eda:	f107 0308 	add.w	r3, r7, #8
 8000ede:	4618      	mov	r0, r3
 8000ee0:	f000 fe30 	bl	8001b44 <Rte_Read_RpMsg102_SysStat>

    lidar_valid = Swc_IsValidDistance(lidar);
 8000ee4:	89fb      	ldrh	r3, [r7, #14]
 8000ee6:	4618      	mov	r0, r3
 8000ee8:	f7ff ff9e 	bl	8000e28 <Swc_IsValidDistance>
 8000eec:	4603      	mov	r3, r0
 8000eee:	f887 302b 	strb.w	r3, [r7, #43]	@ 0x2b
    ultra_valid = Swc_IsValidDistance(front_ultra);
 8000ef2:	8a7b      	ldrh	r3, [r7, #18]
 8000ef4:	4618      	mov	r0, r3
 8000ef6:	f7ff ff97 	bl	8000e28 <Swc_IsValidDistance>
 8000efa:	4603      	mov	r3, r0
 8000efc:	f887 302a 	strb.w	r3, [r7, #42]	@ 0x2a

    alpha_used = Swc_ClampFloat(alpha, 0.0f, 1.0f);
 8000f00:	68bb      	ldr	r3, [r7, #8]
 8000f02:	f04f 527e 	mov.w	r2, #1065353216	@ 0x3f800000
 8000f06:	f04f 0100 	mov.w	r1, #0
 8000f0a:	4618      	mov	r0, r3
 8000f0c:	f7ff ffa1 	bl	8000e52 <Swc_ClampFloat>
 8000f10:	6278      	str	r0, [r7, #36]	@ 0x24

    /*
     * hợp nhất khoảng cách trước xe
     * alpha càng lớn thì tin LiDAR nhiều hơn
     */
    if ((lidar_valid == TRUE) && (ultra_valid == TRUE)) {
 8000f12:	f897 302b 	ldrb.w	r3, [r7, #43]	@ 0x2b
 8000f16:	2b01      	cmp	r3, #1
 8000f18:	d129      	bne.n	8000f6e <Swc_SensorFusion_Task_10ms+0xe2>
 8000f1a:	f897 302a 	ldrb.w	r3, [r7, #42]	@ 0x2a
 8000f1e:	2b01      	cmp	r3, #1
 8000f20:	d125      	bne.n	8000f6e <Swc_SensorFusion_Task_10ms+0xe2>
        dfinal_now = (alpha_used * (float32)lidar) +
 8000f22:	89fb      	ldrh	r3, [r7, #14]
 8000f24:	4618      	mov	r0, r3
 8000f26:	f7ff f9c7 	bl	80002b8 <__aeabi_ui2f>
 8000f2a:	4603      	mov	r3, r0
 8000f2c:	6a79      	ldr	r1, [r7, #36]	@ 0x24
 8000f2e:	4618      	mov	r0, r3
 8000f30:	f7ff fa1a 	bl	8000368 <__aeabi_fmul>
 8000f34:	4603      	mov	r3, r0
 8000f36:	461c      	mov	r4, r3
                     ((1.0f - alpha_used) * (float32)front_ultra);
 8000f38:	6a79      	ldr	r1, [r7, #36]	@ 0x24
 8000f3a:	f04f 507e 	mov.w	r0, #1065353216	@ 0x3f800000
 8000f3e:	f7ff f909 	bl	8000154 <__aeabi_fsub>
 8000f42:	4603      	mov	r3, r0
 8000f44:	461d      	mov	r5, r3
 8000f46:	8a7b      	ldrh	r3, [r7, #18]
 8000f48:	4618      	mov	r0, r3
 8000f4a:	f7ff f9b5 	bl	80002b8 <__aeabi_ui2f>
 8000f4e:	4603      	mov	r3, r0
 8000f50:	4619      	mov	r1, r3
 8000f52:	4628      	mov	r0, r5
 8000f54:	f7ff fa08 	bl	8000368 <__aeabi_fmul>
 8000f58:	4603      	mov	r3, r0
        dfinal_now = (alpha_used * (float32)lidar) +
 8000f5a:	4619      	mov	r1, r3
 8000f5c:	4620      	mov	r0, r4
 8000f5e:	f7ff f8fb 	bl	8000158 <__addsf3>
 8000f62:	4603      	mov	r3, r0
 8000f64:	637b      	str	r3, [r7, #52]	@ 0x34
        dfinal_valid = TRUE;
 8000f66:	2301      	movs	r3, #1
 8000f68:	f887 3033 	strb.w	r3, [r7, #51]	@ 0x33
 8000f6c:	e021      	b.n	8000fb2 <Swc_SensorFusion_Task_10ms+0x126>
    }
    else if (lidar_valid == TRUE) {
 8000f6e:	f897 302b 	ldrb.w	r3, [r7, #43]	@ 0x2b
 8000f72:	2b01      	cmp	r3, #1
 8000f74:	d109      	bne.n	8000f8a <Swc_SensorFusion_Task_10ms+0xfe>
        dfinal_now = (float32)lidar;
 8000f76:	89fb      	ldrh	r3, [r7, #14]
 8000f78:	4618      	mov	r0, r3
 8000f7a:	f7ff f99d 	bl	80002b8 <__aeabi_ui2f>
 8000f7e:	4603      	mov	r3, r0
 8000f80:	637b      	str	r3, [r7, #52]	@ 0x34
        dfinal_valid = TRUE;
 8000f82:	2301      	movs	r3, #1
 8000f84:	f887 3033 	strb.w	r3, [r7, #51]	@ 0x33
 8000f88:	e013      	b.n	8000fb2 <Swc_SensorFusion_Task_10ms+0x126>
    }
    else if (ultra_valid == TRUE) {
 8000f8a:	f897 302a 	ldrb.w	r3, [r7, #42]	@ 0x2a
 8000f8e:	2b01      	cmp	r3, #1
 8000f90:	d109      	bne.n	8000fa6 <Swc_SensorFusion_Task_10ms+0x11a>
        dfinal_now = (float32)front_ultra;
 8000f92:	8a7b      	ldrh	r3, [r7, #18]
 8000f94:	4618      	mov	r0, r3
 8000f96:	f7ff f98f 	bl	80002b8 <__aeabi_ui2f>
 8000f9a:	4603      	mov	r3, r0
 8000f9c:	637b      	str	r3, [r7, #52]	@ 0x34
        dfinal_valid = TRUE;
 8000f9e:	2301      	movs	r3, #1
 8000fa0:	f887 3033 	strb.w	r3, [r7, #51]	@ 0x33
 8000fa4:	e005      	b.n	8000fb2 <Swc_SensorFusion_Task_10ms+0x126>
    }
    else {
        dfinal_now = 0.0f;
 8000fa6:	f04f 0300 	mov.w	r3, #0
 8000faa:	637b      	str	r3, [r7, #52]	@ 0x34
        dfinal_valid = FALSE;
 8000fac:	2300      	movs	r3, #0
 8000fae:	f887 3033 	strb.w	r3, [r7, #51]	@ 0x33
     *
     * quy ước:
     * D_final giảm  -> vật lại gần -> vrel_sign = +1
     * D_final tăng  -> vật ra xa   -> vrel_sign = -1
     */
    if (dfinal_valid == TRUE) {
 8000fb2:	f897 3033 	ldrb.w	r3, [r7, #51]	@ 0x33
 8000fb6:	2b01      	cmp	r3, #1
 8000fb8:	d172      	bne.n	80010a0 <Swc_SensorFusion_Task_10ms+0x214>
        if (first_valid_dfinal == TRUE) {
 8000fba:	4b7d      	ldr	r3, [pc, #500]	@ (80011b0 <Swc_SensorFusion_Task_10ms+0x324>)
 8000fbc:	781b      	ldrb	r3, [r3, #0]
 8000fbe:	2b01      	cmp	r3, #1
 8000fc0:	d10f      	bne.n	8000fe2 <Swc_SensorFusion_Task_10ms+0x156>
            dfinal_filt = dfinal_now;
 8000fc2:	4a7c      	ldr	r2, [pc, #496]	@ (80011b4 <Swc_SensorFusion_Task_10ms+0x328>)
 8000fc4:	6b7b      	ldr	r3, [r7, #52]	@ 0x34
 8000fc6:	6013      	str	r3, [r2, #0]
            prev_dfinal_filt = dfinal_now;
 8000fc8:	4a7b      	ldr	r2, [pc, #492]	@ (80011b8 <Swc_SensorFusion_Task_10ms+0x32c>)
 8000fca:	6b7b      	ldr	r3, [r7, #52]	@ 0x34
 8000fcc:	6013      	str	r3, [r2, #0]
            first_valid_dfinal = FALSE;
 8000fce:	4b78      	ldr	r3, [pc, #480]	@ (80011b0 <Swc_SensorFusion_Task_10ms+0x324>)
 8000fd0:	2200      	movs	r2, #0
 8000fd2:	701a      	strb	r2, [r3, #0]
            vrel_sign = 0;
 8000fd4:	4b79      	ldr	r3, [pc, #484]	@ (80011bc <Swc_SensorFusion_Task_10ms+0x330>)
 8000fd6:	2200      	movs	r2, #0
 8000fd8:	701a      	strb	r2, [r3, #0]
            sign_hold_ticks = 0u;
 8000fda:	4b79      	ldr	r3, [pc, #484]	@ (80011c0 <Swc_SensorFusion_Task_10ms+0x334>)
 8000fdc:	2200      	movs	r2, #0
 8000fde:	801a      	strh	r2, [r3, #0]
 8000fe0:	e04e      	b.n	8001080 <Swc_SensorFusion_Task_10ms+0x1f4>
        }
        else {
            dfinal_filt = (SWC_DFINAL_FILTER_ALPHA * dfinal_filt) +
 8000fe2:	4b74      	ldr	r3, [pc, #464]	@ (80011b4 <Swc_SensorFusion_Task_10ms+0x328>)
 8000fe4:	681b      	ldr	r3, [r3, #0]
 8000fe6:	4977      	ldr	r1, [pc, #476]	@ (80011c4 <Swc_SensorFusion_Task_10ms+0x338>)
 8000fe8:	4618      	mov	r0, r3
 8000fea:	f7ff f9bd 	bl	8000368 <__aeabi_fmul>
 8000fee:	4603      	mov	r3, r0
 8000ff0:	461c      	mov	r4, r3
                          ((1.0f - SWC_DFINAL_FILTER_ALPHA) * dfinal_now);
 8000ff2:	4975      	ldr	r1, [pc, #468]	@ (80011c8 <Swc_SensorFusion_Task_10ms+0x33c>)
 8000ff4:	6b78      	ldr	r0, [r7, #52]	@ 0x34
 8000ff6:	f7ff f9b7 	bl	8000368 <__aeabi_fmul>
 8000ffa:	4603      	mov	r3, r0
            dfinal_filt = (SWC_DFINAL_FILTER_ALPHA * dfinal_filt) +
 8000ffc:	4619      	mov	r1, r3
 8000ffe:	4620      	mov	r0, r4
 8001000:	f7ff f8aa 	bl	8000158 <__addsf3>
 8001004:	4603      	mov	r3, r0
 8001006:	461a      	mov	r2, r3
 8001008:	4b6a      	ldr	r3, [pc, #424]	@ (80011b4 <Swc_SensorFusion_Task_10ms+0x328>)
 800100a:	601a      	str	r2, [r3, #0]

            delta_d = dfinal_filt - prev_dfinal_filt;
 800100c:	4b69      	ldr	r3, [pc, #420]	@ (80011b4 <Swc_SensorFusion_Task_10ms+0x328>)
 800100e:	681b      	ldr	r3, [r3, #0]
 8001010:	4a69      	ldr	r2, [pc, #420]	@ (80011b8 <Swc_SensorFusion_Task_10ms+0x32c>)
 8001012:	6812      	ldr	r2, [r2, #0]
 8001014:	4611      	mov	r1, r2
 8001016:	4618      	mov	r0, r3
 8001018:	f7ff f89c 	bl	8000154 <__aeabi_fsub>
 800101c:	4603      	mov	r3, r0
 800101e:	62fb      	str	r3, [r7, #44]	@ 0x2c

            if (delta_d <= -SWC_DFINAL_SIGN_DEADBAND_CM) {
 8001020:	f04f 4140 	mov.w	r1, #3221225472	@ 0xc0000000
 8001024:	6af8      	ldr	r0, [r7, #44]	@ 0x2c
 8001026:	f7ff fb47 	bl	80006b8 <__aeabi_fcmple>
 800102a:	4603      	mov	r3, r0
 800102c:	2b00      	cmp	r3, #0
 800102e:	d006      	beq.n	800103e <Swc_SensorFusion_Task_10ms+0x1b2>
                vrel_sign = 1;
 8001030:	4b62      	ldr	r3, [pc, #392]	@ (80011bc <Swc_SensorFusion_Task_10ms+0x330>)
 8001032:	2201      	movs	r2, #1
 8001034:	701a      	strb	r2, [r3, #0]
                sign_hold_ticks = 0u;
 8001036:	4b62      	ldr	r3, [pc, #392]	@ (80011c0 <Swc_SensorFusion_Task_10ms+0x334>)
 8001038:	2200      	movs	r2, #0
 800103a:	801a      	strh	r2, [r3, #0]
 800103c:	e01c      	b.n	8001078 <Swc_SensorFusion_Task_10ms+0x1ec>
            }
            else if (delta_d >= SWC_DFINAL_SIGN_DEADBAND_CM) {
 800103e:	f04f 4180 	mov.w	r1, #1073741824	@ 0x40000000
 8001042:	6af8      	ldr	r0, [r7, #44]	@ 0x2c
 8001044:	f7ff fb42 	bl	80006cc <__aeabi_fcmpge>
 8001048:	4603      	mov	r3, r0
 800104a:	2b00      	cmp	r3, #0
 800104c:	d006      	beq.n	800105c <Swc_SensorFusion_Task_10ms+0x1d0>
                vrel_sign = -1;
 800104e:	4b5b      	ldr	r3, [pc, #364]	@ (80011bc <Swc_SensorFusion_Task_10ms+0x330>)
 8001050:	22ff      	movs	r2, #255	@ 0xff
 8001052:	701a      	strb	r2, [r3, #0]
                sign_hold_ticks = 0u;
 8001054:	4b5a      	ldr	r3, [pc, #360]	@ (80011c0 <Swc_SensorFusion_Task_10ms+0x334>)
 8001056:	2200      	movs	r2, #0
 8001058:	801a      	strh	r2, [r3, #0]
 800105a:	e00d      	b.n	8001078 <Swc_SensorFusion_Task_10ms+0x1ec>
            }
            else {
                if (sign_hold_ticks < SWC_VREL_SIGN_HOLD_MAX_TICKS) {
 800105c:	4b58      	ldr	r3, [pc, #352]	@ (80011c0 <Swc_SensorFusion_Task_10ms+0x334>)
 800105e:	881b      	ldrh	r3, [r3, #0]
 8001060:	2b31      	cmp	r3, #49	@ 0x31
 8001062:	d806      	bhi.n	8001072 <Swc_SensorFusion_Task_10ms+0x1e6>
                    sign_hold_ticks++;
 8001064:	4b56      	ldr	r3, [pc, #344]	@ (80011c0 <Swc_SensorFusion_Task_10ms+0x334>)
 8001066:	881b      	ldrh	r3, [r3, #0]
 8001068:	3301      	adds	r3, #1
 800106a:	b29a      	uxth	r2, r3
 800106c:	4b54      	ldr	r3, [pc, #336]	@ (80011c0 <Swc_SensorFusion_Task_10ms+0x334>)
 800106e:	801a      	strh	r2, [r3, #0]
 8001070:	e002      	b.n	8001078 <Swc_SensorFusion_Task_10ms+0x1ec>
                }
                else {
                    vrel_sign = 0;
 8001072:	4b52      	ldr	r3, [pc, #328]	@ (80011bc <Swc_SensorFusion_Task_10ms+0x330>)
 8001074:	2200      	movs	r2, #0
 8001076:	701a      	strb	r2, [r3, #0]
                }
            }

            prev_dfinal_filt = dfinal_filt;
 8001078:	4b4e      	ldr	r3, [pc, #312]	@ (80011b4 <Swc_SensorFusion_Task_10ms+0x328>)
 800107a:	681b      	ldr	r3, [r3, #0]
 800107c:	4a4e      	ldr	r2, [pc, #312]	@ (80011b8 <Swc_SensorFusion_Task_10ms+0x32c>)
 800107e:	6013      	str	r3, [r2, #0]
        }

        Swc_Buffer_Dfinal = (uint16)(dfinal_filt + 0.5f);
 8001080:	4b4c      	ldr	r3, [pc, #304]	@ (80011b4 <Swc_SensorFusion_Task_10ms+0x328>)
 8001082:	681b      	ldr	r3, [r3, #0]
 8001084:	f04f 517c 	mov.w	r1, #1056964608	@ 0x3f000000
 8001088:	4618      	mov	r0, r3
 800108a:	f7ff f865 	bl	8000158 <__addsf3>
 800108e:	4603      	mov	r3, r0
 8001090:	4618      	mov	r0, r3
 8001092:	f7ff fb55 	bl	8000740 <__aeabi_f2uiz>
 8001096:	4603      	mov	r3, r0
 8001098:	b29a      	uxth	r2, r3
 800109a:	4b4c      	ldr	r3, [pc, #304]	@ (80011cc <Swc_SensorFusion_Task_10ms+0x340>)
 800109c:	801a      	strh	r2, [r3, #0]
 800109e:	e014      	b.n	80010ca <Swc_SensorFusion_Task_10ms+0x23e>
    }
    else {
        first_valid_dfinal = TRUE;
 80010a0:	4b43      	ldr	r3, [pc, #268]	@ (80011b0 <Swc_SensorFusion_Task_10ms+0x324>)
 80010a2:	2201      	movs	r2, #1
 80010a4:	701a      	strb	r2, [r3, #0]
        dfinal_filt = 0.0f;
 80010a6:	4b43      	ldr	r3, [pc, #268]	@ (80011b4 <Swc_SensorFusion_Task_10ms+0x328>)
 80010a8:	f04f 0200 	mov.w	r2, #0
 80010ac:	601a      	str	r2, [r3, #0]
        prev_dfinal_filt = 0.0f;
 80010ae:	4b42      	ldr	r3, [pc, #264]	@ (80011b8 <Swc_SensorFusion_Task_10ms+0x32c>)
 80010b0:	f04f 0200 	mov.w	r2, #0
 80010b4:	601a      	str	r2, [r3, #0]
        vrel_sign = 0;
 80010b6:	4b41      	ldr	r3, [pc, #260]	@ (80011bc <Swc_SensorFusion_Task_10ms+0x330>)
 80010b8:	2200      	movs	r2, #0
 80010ba:	701a      	strb	r2, [r3, #0]
        sign_hold_ticks = 0u;
 80010bc:	4b40      	ldr	r3, [pc, #256]	@ (80011c0 <Swc_SensorFusion_Task_10ms+0x334>)
 80010be:	2200      	movs	r2, #0
 80010c0:	801a      	strh	r2, [r3, #0]

        Swc_Buffer_Dfinal = 0xFFFFu;
 80010c2:	4b42      	ldr	r3, [pc, #264]	@ (80011cc <Swc_SensorFusion_Task_10ms+0x340>)
 80010c4:	f64f 72ff 	movw	r2, #65535	@ 0xffff
 80010c8:	801a      	strh	r2, [r3, #0]
    }

    /*
     * tính Vrel từ Fd Doppler
     */
    if ((Swc_Buffer_Dfinal != 0xFFFFu) &&
 80010ca:	4b40      	ldr	r3, [pc, #256]	@ (80011cc <Swc_SensorFusion_Task_10ms+0x340>)
 80010cc:	881b      	ldrh	r3, [r3, #0]
 80010ce:	f64f 72ff 	movw	r2, #65535	@ 0xffff
 80010d2:	4293      	cmp	r3, r2
 80010d4:	d056      	beq.n	8001184 <Swc_SensorFusion_Task_10ms+0x2f8>
        (vrel_sign != 0)) {
 80010d6:	4b39      	ldr	r3, [pc, #228]	@ (80011bc <Swc_SensorFusion_Task_10ms+0x330>)
 80010d8:	f993 3000 	ldrsb.w	r3, [r3]
    if ((Swc_Buffer_Dfinal != 0xFFFFu) &&
 80010dc:	2b00      	cmp	r3, #0
 80010de:	d051      	beq.n	8001184 <Swc_SensorFusion_Task_10ms+0x2f8>

        fd_hz = (float32)fd_scaled / 100.0f;
 80010e0:	8a3b      	ldrh	r3, [r7, #16]
 80010e2:	4618      	mov	r0, r3
 80010e4:	f7ff f8e8 	bl	80002b8 <__aeabi_ui2f>
 80010e8:	4603      	mov	r3, r0
 80010ea:	4939      	ldr	r1, [pc, #228]	@ (80011d0 <Swc_SensorFusion_Task_10ms+0x344>)
 80010ec:	4618      	mov	r0, r3
 80010ee:	f7ff f9ef 	bl	80004d0 <__aeabi_fdiv>
 80010f2:	4603      	mov	r3, r0
 80010f4:	623b      	str	r3, [r7, #32]
        vrel_mag = fd_hz * SWC_DOPPLER_TO_VREL_GAIN;
 80010f6:	4937      	ldr	r1, [pc, #220]	@ (80011d4 <Swc_SensorFusion_Task_10ms+0x348>)
 80010f8:	6a38      	ldr	r0, [r7, #32]
 80010fa:	f7ff f935 	bl	8000368 <__aeabi_fmul>
 80010fe:	4603      	mov	r3, r0
 8001100:	61fb      	str	r3, [r7, #28]
        vrel_now = (float32)vrel_sign * vrel_mag;
 8001102:	4b2e      	ldr	r3, [pc, #184]	@ (80011bc <Swc_SensorFusion_Task_10ms+0x330>)
 8001104:	f993 3000 	ldrsb.w	r3, [r3]
 8001108:	4618      	mov	r0, r3
 800110a:	f7ff f8d9 	bl	80002c0 <__aeabi_i2f>
 800110e:	4603      	mov	r3, r0
 8001110:	4619      	mov	r1, r3
 8001112:	69f8      	ldr	r0, [r7, #28]
 8001114:	f7ff f928 	bl	8000368 <__aeabi_fmul>
 8001118:	4603      	mov	r3, r0
 800111a:	61bb      	str	r3, [r7, #24]

        arel_raw = (vrel_now - prev_vrel) / SWC_TASK_PERIOD_SEC;
 800111c:	4b2e      	ldr	r3, [pc, #184]	@ (80011d8 <Swc_SensorFusion_Task_10ms+0x34c>)
 800111e:	681b      	ldr	r3, [r3, #0]
 8001120:	4619      	mov	r1, r3
 8001122:	69b8      	ldr	r0, [r7, #24]
 8001124:	f7ff f816 	bl	8000154 <__aeabi_fsub>
 8001128:	4603      	mov	r3, r0
 800112a:	492c      	ldr	r1, [pc, #176]	@ (80011dc <Swc_SensorFusion_Task_10ms+0x350>)
 800112c:	4618      	mov	r0, r3
 800112e:	f7ff f9cf 	bl	80004d0 <__aeabi_fdiv>
 8001132:	4603      	mov	r3, r0
 8001134:	617b      	str	r3, [r7, #20]
        arel_raw = Swc_ClampFloat(arel_raw, -SWC_AREL_LIMIT_MPS2, SWC_AREL_LIMIT_MPS2);
 8001136:	4a2a      	ldr	r2, [pc, #168]	@ (80011e0 <Swc_SensorFusion_Task_10ms+0x354>)
 8001138:	492a      	ldr	r1, [pc, #168]	@ (80011e4 <Swc_SensorFusion_Task_10ms+0x358>)
 800113a:	6978      	ldr	r0, [r7, #20]
 800113c:	f7ff fe89 	bl	8000e52 <Swc_ClampFloat>
 8001140:	6178      	str	r0, [r7, #20]

        Swc_Buffer_Arel = (SWC_AREL_FILTER_ALPHA * prev_arel) +
 8001142:	4b29      	ldr	r3, [pc, #164]	@ (80011e8 <Swc_SensorFusion_Task_10ms+0x35c>)
 8001144:	681b      	ldr	r3, [r3, #0]
 8001146:	491f      	ldr	r1, [pc, #124]	@ (80011c4 <Swc_SensorFusion_Task_10ms+0x338>)
 8001148:	4618      	mov	r0, r3
 800114a:	f7ff f90d 	bl	8000368 <__aeabi_fmul>
 800114e:	4603      	mov	r3, r0
 8001150:	461c      	mov	r4, r3
                          ((1.0f - SWC_AREL_FILTER_ALPHA) * arel_raw);
 8001152:	491d      	ldr	r1, [pc, #116]	@ (80011c8 <Swc_SensorFusion_Task_10ms+0x33c>)
 8001154:	6978      	ldr	r0, [r7, #20]
 8001156:	f7ff f907 	bl	8000368 <__aeabi_fmul>
 800115a:	4603      	mov	r3, r0
        Swc_Buffer_Arel = (SWC_AREL_FILTER_ALPHA * prev_arel) +
 800115c:	4619      	mov	r1, r3
 800115e:	4620      	mov	r0, r4
 8001160:	f7fe fffa 	bl	8000158 <__addsf3>
 8001164:	4603      	mov	r3, r0
 8001166:	461a      	mov	r2, r3
 8001168:	4b20      	ldr	r3, [pc, #128]	@ (80011ec <Swc_SensorFusion_Task_10ms+0x360>)
 800116a:	601a      	str	r2, [r3, #0]

        Swc_Buffer_Vrel = vrel_now;
 800116c:	4a20      	ldr	r2, [pc, #128]	@ (80011f0 <Swc_SensorFusion_Task_10ms+0x364>)
 800116e:	69bb      	ldr	r3, [r7, #24]
 8001170:	6013      	str	r3, [r2, #0]

        prev_vrel = Swc_Buffer_Vrel;
 8001172:	4b1f      	ldr	r3, [pc, #124]	@ (80011f0 <Swc_SensorFusion_Task_10ms+0x364>)
 8001174:	681b      	ldr	r3, [r3, #0]
 8001176:	4a18      	ldr	r2, [pc, #96]	@ (80011d8 <Swc_SensorFusion_Task_10ms+0x34c>)
 8001178:	6013      	str	r3, [r2, #0]
        prev_arel = Swc_Buffer_Arel;
 800117a:	4b1c      	ldr	r3, [pc, #112]	@ (80011ec <Swc_SensorFusion_Task_10ms+0x360>)
 800117c:	681b      	ldr	r3, [r3, #0]
 800117e:	4a1a      	ldr	r2, [pc, #104]	@ (80011e8 <Swc_SensorFusion_Task_10ms+0x35c>)
 8001180:	6013      	str	r3, [r2, #0]
 8001182:	e010      	b.n	80011a6 <Swc_SensorFusion_Task_10ms+0x31a>
    }
    else {
        Swc_Buffer_Vrel = 0.0f;
 8001184:	4b1a      	ldr	r3, [pc, #104]	@ (80011f0 <Swc_SensorFusion_Task_10ms+0x364>)
 8001186:	f04f 0200 	mov.w	r2, #0
 800118a:	601a      	str	r2, [r3, #0]
        Swc_Buffer_Arel = 0.0f;
 800118c:	4b17      	ldr	r3, [pc, #92]	@ (80011ec <Swc_SensorFusion_Task_10ms+0x360>)
 800118e:	f04f 0200 	mov.w	r2, #0
 8001192:	601a      	str	r2, [r3, #0]

        prev_vrel = 0.0f;
 8001194:	4b10      	ldr	r3, [pc, #64]	@ (80011d8 <Swc_SensorFusion_Task_10ms+0x34c>)
 8001196:	f04f 0200 	mov.w	r2, #0
 800119a:	601a      	str	r2, [r3, #0]
        prev_arel = 0.0f;
 800119c:	4b12      	ldr	r3, [pc, #72]	@ (80011e8 <Swc_SensorFusion_Task_10ms+0x35c>)
 800119e:	f04f 0200 	mov.w	r2, #0
 80011a2:	601a      	str	r2, [r3, #0]
    }
}
 80011a4:	bf00      	nop
 80011a6:	bf00      	nop
 80011a8:	3738      	adds	r7, #56	@ 0x38
 80011aa:	46bd      	mov	sp, r7
 80011ac:	bdb0      	pop	{r4, r5, r7, pc}
 80011ae:	bf00      	nop
 80011b0:	20000006 	.word	0x20000006
 80011b4:	20000048 	.word	0x20000048
 80011b8:	2000004c 	.word	0x2000004c
 80011bc:	20000050 	.word	0x20000050
 80011c0:	20000052 	.word	0x20000052
 80011c4:	3f333333 	.word	0x3f333333
 80011c8:	3e99999a 	.word	0x3e99999a
 80011cc:	20000004 	.word	0x20000004
 80011d0:	42c80000 	.word	0x42c80000
 80011d4:	3bcb295f 	.word	0x3bcb295f
 80011d8:	20000054 	.word	0x20000054
 80011dc:	3c23d70a 	.word	0x3c23d70a
 80011e0:	40a00000 	.word	0x40a00000
 80011e4:	c0a00000 	.word	0xc0a00000
 80011e8:	20000058 	.word	0x20000058
 80011ec:	20000044 	.word	0x20000044
 80011f0:	20000040 	.word	0x20000040

080011f4 <Swc_SensorFusion_GetResults>:

Std_ReturnType Swc_SensorFusion_GetResults(uint16* DfinalPtr, float32* VrelPtr, float32* ArelPtr)
{
 80011f4:	b480      	push	{r7}
 80011f6:	b085      	sub	sp, #20
 80011f8:	af00      	add	r7, sp, #0
 80011fa:	60f8      	str	r0, [r7, #12]
 80011fc:	60b9      	str	r1, [r7, #8]
 80011fe:	607a      	str	r2, [r7, #4]
    if ((DfinalPtr == NULL_PTR) || (VrelPtr == NULL_PTR) || (ArelPtr == NULL_PTR)) {
 8001200:	68fb      	ldr	r3, [r7, #12]
 8001202:	2b00      	cmp	r3, #0
 8001204:	d005      	beq.n	8001212 <Swc_SensorFusion_GetResults+0x1e>
 8001206:	68bb      	ldr	r3, [r7, #8]
 8001208:	2b00      	cmp	r3, #0
 800120a:	d002      	beq.n	8001212 <Swc_SensorFusion_GetResults+0x1e>
 800120c:	687b      	ldr	r3, [r7, #4]
 800120e:	2b00      	cmp	r3, #0
 8001210:	d101      	bne.n	8001216 <Swc_SensorFusion_GetResults+0x22>
        return E_NOT_OK;
 8001212:	2301      	movs	r3, #1
 8001214:	e00c      	b.n	8001230 <Swc_SensorFusion_GetResults+0x3c>
    }

    *DfinalPtr = Swc_Buffer_Dfinal;
 8001216:	4b09      	ldr	r3, [pc, #36]	@ (800123c <Swc_SensorFusion_GetResults+0x48>)
 8001218:	881a      	ldrh	r2, [r3, #0]
 800121a:	68fb      	ldr	r3, [r7, #12]
 800121c:	801a      	strh	r2, [r3, #0]
    *VrelPtr = Swc_Buffer_Vrel;
 800121e:	4b08      	ldr	r3, [pc, #32]	@ (8001240 <Swc_SensorFusion_GetResults+0x4c>)
 8001220:	681a      	ldr	r2, [r3, #0]
 8001222:	68bb      	ldr	r3, [r7, #8]
 8001224:	601a      	str	r2, [r3, #0]
    *ArelPtr = Swc_Buffer_Arel;
 8001226:	4b07      	ldr	r3, [pc, #28]	@ (8001244 <Swc_SensorFusion_GetResults+0x50>)
 8001228:	681a      	ldr	r2, [r3, #0]
 800122a:	687b      	ldr	r3, [r7, #4]
 800122c:	601a      	str	r2, [r3, #0]

    return E_OK;
 800122e:	2300      	movs	r3, #0
}
 8001230:	4618      	mov	r0, r3
 8001232:	3714      	adds	r7, #20
 8001234:	46bd      	mov	sp, r7
 8001236:	bc80      	pop	{r7}
 8001238:	4770      	bx	lr
 800123a:	bf00      	nop
 800123c:	20000004 	.word	0x20000004
 8001240:	20000040 	.word	0x20000040
 8001244:	20000044 	.word	0x20000044

08001248 <Swc_ControlNode_Task_10ms>:

void Swc_ControlNode_Task_10ms(void)
{
 8001248:	b580      	push	{r7, lr}
 800124a:	af00      	add	r7, sp, #0
    Swc_SensorFusion_Task_10ms();
 800124c:	f7ff fe1e 	bl	8000e8c <Swc_SensorFusion_Task_10ms>
    Swc_SafetyLogic_Task_10ms();
 8001250:	f7ff fce8 	bl	8000c24 <Swc_SafetyLogic_Task_10ms>
}
 8001254:	bf00      	nop
 8001256:	bd80      	pop	{r7, pc}

08001258 <CanIf_RxIndication>:
#include "CanIf.h"
#include "Can.h"

Std_ReturnType CanIf_RxIndication(Can_PduType* CanPduPtr)
{
 8001258:	b580      	push	{r7, lr}
 800125a:	b082      	sub	sp, #8
 800125c:	af00      	add	r7, sp, #0
 800125e:	6078      	str	r0, [r7, #4]
    return Can_Read(CanPduPtr);
 8001260:	6878      	ldr	r0, [r7, #4]
 8001262:	f000 f977 	bl	8001554 <Can_Read>
 8001266:	4603      	mov	r3, r0
 8001268:	4618      	mov	r0, r3
 800126a:	3708      	adds	r7, #8
 800126c:	46bd      	mov	sp, r7
 800126e:	bd80      	pop	{r7, pc}

08001270 <IoHwAb_PcCom_CalcChecksum>:
 * 25     Checksum
 */
#define IOHWAB_PCCOM_FRAME_SIZE 26u

static uint8 IoHwAb_PcCom_CalcChecksum(const uint8 *data, uint8 length)
{
 8001270:	b480      	push	{r7}
 8001272:	b085      	sub	sp, #20
 8001274:	af00      	add	r7, sp, #0
 8001276:	6078      	str	r0, [r7, #4]
 8001278:	460b      	mov	r3, r1
 800127a:	70fb      	strb	r3, [r7, #3]
    uint8 i;
    uint8 checksum = 0u;
 800127c:	2300      	movs	r3, #0
 800127e:	73bb      	strb	r3, [r7, #14]

    if (data == NULL_PTR)
 8001280:	687b      	ldr	r3, [r7, #4]
 8001282:	2b00      	cmp	r3, #0
 8001284:	d101      	bne.n	800128a <IoHwAb_PcCom_CalcChecksum+0x1a>
    {
        return 0u;
 8001286:	2300      	movs	r3, #0
 8001288:	e011      	b.n	80012ae <IoHwAb_PcCom_CalcChecksum+0x3e>
    }

    for (i = 0u; i < length; i++)
 800128a:	2300      	movs	r3, #0
 800128c:	73fb      	strb	r3, [r7, #15]
 800128e:	e009      	b.n	80012a4 <IoHwAb_PcCom_CalcChecksum+0x34>
    {
        checksum ^= data[i];
 8001290:	7bfb      	ldrb	r3, [r7, #15]
 8001292:	687a      	ldr	r2, [r7, #4]
 8001294:	4413      	add	r3, r2
 8001296:	781a      	ldrb	r2, [r3, #0]
 8001298:	7bbb      	ldrb	r3, [r7, #14]
 800129a:	4053      	eors	r3, r2
 800129c:	73bb      	strb	r3, [r7, #14]
    for (i = 0u; i < length; i++)
 800129e:	7bfb      	ldrb	r3, [r7, #15]
 80012a0:	3301      	adds	r3, #1
 80012a2:	73fb      	strb	r3, [r7, #15]
 80012a4:	7bfa      	ldrb	r2, [r7, #15]
 80012a6:	78fb      	ldrb	r3, [r7, #3]
 80012a8:	429a      	cmp	r2, r3
 80012aa:	d3f1      	bcc.n	8001290 <IoHwAb_PcCom_CalcChecksum+0x20>
    }

    return checksum;
 80012ac:	7bbb      	ldrb	r3, [r7, #14]
}
 80012ae:	4618      	mov	r0, r3
 80012b0:	3714      	adds	r7, #20
 80012b2:	46bd      	mov	sp, r7
 80012b4:	bc80      	pop	{r7}
 80012b6:	4770      	bx	lr

080012b8 <IoHwAb_PcCom_Init>:

void IoHwAb_PcCom_Init(void)
{
 80012b8:	b580      	push	{r7, lr}
 80012ba:	af00      	add	r7, sp, #0
    Uart_Init();
 80012bc:	f000 fac4 	bl	8001848 <Uart_Init>
}
 80012c0:	bf00      	nop
 80012c2:	bd80      	pop	{r7, pc}

080012c4 <IoHwAb_PcCom_SendHmiFrame>:
                                         sint16 a_rel_scaled,
                                         uint8 fcw_state,
                                         uint8 bsd_left_state,
                                         uint8 bsd_right_state,
                                         uint8 status)
{
 80012c4:	b590      	push	{r4, r7, lr}
 80012c6:	b08d      	sub	sp, #52	@ 0x34
 80012c8:	af00      	add	r7, sp, #0
 80012ca:	4604      	mov	r4, r0
 80012cc:	4608      	mov	r0, r1
 80012ce:	4611      	mov	r1, r2
 80012d0:	461a      	mov	r2, r3
 80012d2:	4623      	mov	r3, r4
 80012d4:	80fb      	strh	r3, [r7, #6]
 80012d6:	4603      	mov	r3, r0
 80012d8:	80bb      	strh	r3, [r7, #4]
 80012da:	460b      	mov	r3, r1
 80012dc:	807b      	strh	r3, [r7, #2]
 80012de:	4613      	mov	r3, r2
 80012e0:	803b      	strh	r3, [r7, #0]
    uint16 sim_speed_scaled;

    uint16 v_rel_u16;
    uint16 a_rel_u16;

    if (alpha < 0.0f)
 80012e2:	f04f 0100 	mov.w	r1, #0
 80012e6:	6c78      	ldr	r0, [r7, #68]	@ 0x44
 80012e8:	f7ff f9dc 	bl	80006a4 <__aeabi_fcmplt>
 80012ec:	4603      	mov	r3, r0
 80012ee:	2b00      	cmp	r3, #0
 80012f0:	d003      	beq.n	80012fa <IoHwAb_PcCom_SendHmiFrame+0x36>
    {
        alpha = 0.0f;
 80012f2:	f04f 0300 	mov.w	r3, #0
 80012f6:	647b      	str	r3, [r7, #68]	@ 0x44
 80012f8:	e008      	b.n	800130c <IoHwAb_PcCom_SendHmiFrame+0x48>
    }
    else if (alpha > 2.55f)
 80012fa:	4958      	ldr	r1, [pc, #352]	@ (800145c <IoHwAb_PcCom_SendHmiFrame+0x198>)
 80012fc:	6c78      	ldr	r0, [r7, #68]	@ 0x44
 80012fe:	f7ff f9ef 	bl	80006e0 <__aeabi_fcmpgt>
 8001302:	4603      	mov	r3, r0
 8001304:	2b00      	cmp	r3, #0
 8001306:	d001      	beq.n	800130c <IoHwAb_PcCom_SendHmiFrame+0x48>
    {
        alpha = 2.55f;
 8001308:	4b54      	ldr	r3, [pc, #336]	@ (800145c <IoHwAb_PcCom_SendHmiFrame+0x198>)
 800130a:	647b      	str	r3, [r7, #68]	@ 0x44
    }
    else
    {
    }

    if (sim_speed < 0.0f)
 800130c:	f04f 0100 	mov.w	r1, #0
 8001310:	6cb8      	ldr	r0, [r7, #72]	@ 0x48
 8001312:	f7ff f9c7 	bl	80006a4 <__aeabi_fcmplt>
 8001316:	4603      	mov	r3, r0
 8001318:	2b00      	cmp	r3, #0
 800131a:	d003      	beq.n	8001324 <IoHwAb_PcCom_SendHmiFrame+0x60>
    {
        sim_speed = 0.0f;
 800131c:	f04f 0300 	mov.w	r3, #0
 8001320:	64bb      	str	r3, [r7, #72]	@ 0x48
 8001322:	e008      	b.n	8001336 <IoHwAb_PcCom_SendHmiFrame+0x72>
    }
    else if (sim_speed > 655.35f)
 8001324:	494e      	ldr	r1, [pc, #312]	@ (8001460 <IoHwAb_PcCom_SendHmiFrame+0x19c>)
 8001326:	6cb8      	ldr	r0, [r7, #72]	@ 0x48
 8001328:	f7ff f9da 	bl	80006e0 <__aeabi_fcmpgt>
 800132c:	4603      	mov	r3, r0
 800132e:	2b00      	cmp	r3, #0
 8001330:	d001      	beq.n	8001336 <IoHwAb_PcCom_SendHmiFrame+0x72>
    {
        sim_speed = 655.35f;
 8001332:	4b4b      	ldr	r3, [pc, #300]	@ (8001460 <IoHwAb_PcCom_SendHmiFrame+0x19c>)
 8001334:	64bb      	str	r3, [r7, #72]	@ 0x48
    }
    else
    {
    }

    alpha_scaled = (uint8)(alpha * 100.0f);
 8001336:	494b      	ldr	r1, [pc, #300]	@ (8001464 <IoHwAb_PcCom_SendHmiFrame+0x1a0>)
 8001338:	6c78      	ldr	r0, [r7, #68]	@ 0x44
 800133a:	f7ff f815 	bl	8000368 <__aeabi_fmul>
 800133e:	4603      	mov	r3, r0
 8001340:	4618      	mov	r0, r3
 8001342:	f7ff f9fd 	bl	8000740 <__aeabi_f2uiz>
 8001346:	4603      	mov	r3, r0
 8001348:	f887 302f 	strb.w	r3, [r7, #47]	@ 0x2f
    sim_speed_scaled = (uint16)(sim_speed * 100.0f);
 800134c:	4945      	ldr	r1, [pc, #276]	@ (8001464 <IoHwAb_PcCom_SendHmiFrame+0x1a0>)
 800134e:	6cb8      	ldr	r0, [r7, #72]	@ 0x48
 8001350:	f7ff f80a 	bl	8000368 <__aeabi_fmul>
 8001354:	4603      	mov	r3, r0
 8001356:	4618      	mov	r0, r3
 8001358:	f7ff f9f2 	bl	8000740 <__aeabi_f2uiz>
 800135c:	4603      	mov	r3, r0
 800135e:	85bb      	strh	r3, [r7, #44]	@ 0x2c

    v_rel_u16 = (uint16)v_rel_scaled;
 8001360:	f8b7 3050 	ldrh.w	r3, [r7, #80]	@ 0x50
 8001364:	857b      	strh	r3, [r7, #42]	@ 0x2a
    a_rel_u16 = (uint16)a_rel_scaled;
 8001366:	f8b7 3054 	ldrh.w	r3, [r7, #84]	@ 0x54
 800136a:	853b      	strh	r3, [r7, #40]	@ 0x28

    frame[0] = IOHWAB_PCCOM_HEADER_1;
 800136c:	23aa      	movs	r3, #170	@ 0xaa
 800136e:	733b      	strb	r3, [r7, #12]
    frame[1] = IOHWAB_PCCOM_HEADER_2;
 8001370:	2355      	movs	r3, #85	@ 0x55
 8001372:	737b      	strb	r3, [r7, #13]

    frame[2] = (uint8)(front_ultra & 0xFFu);
 8001374:	88fb      	ldrh	r3, [r7, #6]
 8001376:	b2db      	uxtb	r3, r3
 8001378:	73bb      	strb	r3, [r7, #14]
    frame[3] = (uint8)((front_ultra >> 8) & 0xFFu);
 800137a:	88fb      	ldrh	r3, [r7, #6]
 800137c:	0a1b      	lsrs	r3, r3, #8
 800137e:	b29b      	uxth	r3, r3
 8001380:	b2db      	uxtb	r3, r3
 8001382:	73fb      	strb	r3, [r7, #15]

    frame[4] = (uint8)(fd_scaled & 0xFFu);
 8001384:	88bb      	ldrh	r3, [r7, #4]
 8001386:	b2db      	uxtb	r3, r3
 8001388:	743b      	strb	r3, [r7, #16]
    frame[5] = (uint8)((fd_scaled >> 8) & 0xFFu);
 800138a:	88bb      	ldrh	r3, [r7, #4]
 800138c:	0a1b      	lsrs	r3, r3, #8
 800138e:	b29b      	uxth	r3, r3
 8001390:	b2db      	uxtb	r3, r3
 8001392:	747b      	strb	r3, [r7, #17]

    frame[6] = (uint8)(lidar & 0xFFu);
 8001394:	887b      	ldrh	r3, [r7, #2]
 8001396:	b2db      	uxtb	r3, r3
 8001398:	74bb      	strb	r3, [r7, #18]
    frame[7] = (uint8)((lidar >> 8) & 0xFFu);
 800139a:	887b      	ldrh	r3, [r7, #2]
 800139c:	0a1b      	lsrs	r3, r3, #8
 800139e:	b29b      	uxth	r3, r3
 80013a0:	b2db      	uxtb	r3, r3
 80013a2:	74fb      	strb	r3, [r7, #19]

    frame[8] = (uint8)(left_ultra & 0xFFu);
 80013a4:	883b      	ldrh	r3, [r7, #0]
 80013a6:	b2db      	uxtb	r3, r3
 80013a8:	753b      	strb	r3, [r7, #20]
    frame[9] = (uint8)((left_ultra >> 8) & 0xFFu);
 80013aa:	883b      	ldrh	r3, [r7, #0]
 80013ac:	0a1b      	lsrs	r3, r3, #8
 80013ae:	b29b      	uxth	r3, r3
 80013b0:	b2db      	uxtb	r3, r3
 80013b2:	757b      	strb	r3, [r7, #21]

    frame[10] = (uint8)(right_ultra & 0xFFu);
 80013b4:	f8b7 3040 	ldrh.w	r3, [r7, #64]	@ 0x40
 80013b8:	b2db      	uxtb	r3, r3
 80013ba:	75bb      	strb	r3, [r7, #22]
    frame[11] = (uint8)((right_ultra >> 8) & 0xFFu);
 80013bc:	f8b7 3040 	ldrh.w	r3, [r7, #64]	@ 0x40
 80013c0:	0a1b      	lsrs	r3, r3, #8
 80013c2:	b29b      	uxth	r3, r3
 80013c4:	b2db      	uxtb	r3, r3
 80013c6:	75fb      	strb	r3, [r7, #23]

    frame[12] = alpha_scaled;
 80013c8:	f897 302f 	ldrb.w	r3, [r7, #47]	@ 0x2f
 80013cc:	763b      	strb	r3, [r7, #24]

    frame[13] = (uint8)(sim_speed_scaled & 0xFFu);
 80013ce:	8dbb      	ldrh	r3, [r7, #44]	@ 0x2c
 80013d0:	b2db      	uxtb	r3, r3
 80013d2:	767b      	strb	r3, [r7, #25]
    frame[14] = (uint8)((sim_speed_scaled >> 8) & 0xFFu);
 80013d4:	8dbb      	ldrh	r3, [r7, #44]	@ 0x2c
 80013d6:	0a1b      	lsrs	r3, r3, #8
 80013d8:	b29b      	uxth	r3, r3
 80013da:	b2db      	uxtb	r3, r3
 80013dc:	76bb      	strb	r3, [r7, #26]

    frame[15] = (uint8)(d_final & 0xFFu);
 80013de:	f8b7 304c 	ldrh.w	r3, [r7, #76]	@ 0x4c
 80013e2:	b2db      	uxtb	r3, r3
 80013e4:	76fb      	strb	r3, [r7, #27]
    frame[16] = (uint8)((d_final >> 8) & 0xFFu);
 80013e6:	f8b7 304c 	ldrh.w	r3, [r7, #76]	@ 0x4c
 80013ea:	0a1b      	lsrs	r3, r3, #8
 80013ec:	b29b      	uxth	r3, r3
 80013ee:	b2db      	uxtb	r3, r3
 80013f0:	773b      	strb	r3, [r7, #28]

    frame[17] = (uint8)(v_rel_u16 & 0xFFu);
 80013f2:	8d7b      	ldrh	r3, [r7, #42]	@ 0x2a
 80013f4:	b2db      	uxtb	r3, r3
 80013f6:	777b      	strb	r3, [r7, #29]
    frame[18] = (uint8)((v_rel_u16 >> 8) & 0xFFu);
 80013f8:	8d7b      	ldrh	r3, [r7, #42]	@ 0x2a
 80013fa:	0a1b      	lsrs	r3, r3, #8
 80013fc:	b29b      	uxth	r3, r3
 80013fe:	b2db      	uxtb	r3, r3
 8001400:	77bb      	strb	r3, [r7, #30]

    frame[19] = (uint8)(a_rel_u16 & 0xFFu);
 8001402:	8d3b      	ldrh	r3, [r7, #40]	@ 0x28
 8001404:	b2db      	uxtb	r3, r3
 8001406:	77fb      	strb	r3, [r7, #31]
    frame[20] = (uint8)((a_rel_u16 >> 8) & 0xFFu);
 8001408:	8d3b      	ldrh	r3, [r7, #40]	@ 0x28
 800140a:	0a1b      	lsrs	r3, r3, #8
 800140c:	b29b      	uxth	r3, r3
 800140e:	b2db      	uxtb	r3, r3
 8001410:	f887 3020 	strb.w	r3, [r7, #32]

    frame[21] = fcw_state;
 8001414:	f897 3058 	ldrb.w	r3, [r7, #88]	@ 0x58
 8001418:	f887 3021 	strb.w	r3, [r7, #33]	@ 0x21
    frame[22] = bsd_left_state;
 800141c:	f897 305c 	ldrb.w	r3, [r7, #92]	@ 0x5c
 8001420:	f887 3022 	strb.w	r3, [r7, #34]	@ 0x22
    frame[23] = bsd_right_state;
 8001424:	f897 3060 	ldrb.w	r3, [r7, #96]	@ 0x60
 8001428:	f887 3023 	strb.w	r3, [r7, #35]	@ 0x23
    frame[24] = status;
 800142c:	f897 3064 	ldrb.w	r3, [r7, #100]	@ 0x64
 8001430:	f887 3024 	strb.w	r3, [r7, #36]	@ 0x24

    frame[25] = IoHwAb_PcCom_CalcChecksum(frame, (uint8)(IOHWAB_PCCOM_FRAME_SIZE - 1u));
 8001434:	f107 030c 	add.w	r3, r7, #12
 8001438:	2119      	movs	r1, #25
 800143a:	4618      	mov	r0, r3
 800143c:	f7ff ff18 	bl	8001270 <IoHwAb_PcCom_CalcChecksum>
 8001440:	4603      	mov	r3, r0
 8001442:	f887 3025 	strb.w	r3, [r7, #37]	@ 0x25

    Uart_SendBuffer(frame, IOHWAB_PCCOM_FRAME_SIZE);
 8001446:	f107 030c 	add.w	r3, r7, #12
 800144a:	211a      	movs	r1, #26
 800144c:	4618      	mov	r0, r3
 800144e:	f000 fa42 	bl	80018d6 <Uart_SendBuffer>

    return E_OK;
 8001452:	2300      	movs	r3, #0
 8001454:	4618      	mov	r0, r3
 8001456:	3734      	adds	r7, #52	@ 0x34
 8001458:	46bd      	mov	sp, r7
 800145a:	bd90      	pop	{r4, r7, pc}
 800145c:	40233333 	.word	0x40233333
 8001460:	4423d666 	.word	0x4423d666
 8001464:	42c80000 	.word	0x42c80000

08001468 <Can_Init>:
#include "Can.h"
#include "stm32f1xx.h"

void Can_Init(void)
{
 8001468:	b480      	push	{r7}
 800146a:	af00      	add	r7, sp, #0
    /* bật clock cho can1 */
    RCC->APB1ENR |= RCC_APB1ENR_CAN1EN;
 800146c:	4b36      	ldr	r3, [pc, #216]	@ (8001548 <Can_Init+0xe0>)
 800146e:	69db      	ldr	r3, [r3, #28]
 8001470:	4a35      	ldr	r2, [pc, #212]	@ (8001548 <Can_Init+0xe0>)
 8001472:	f043 7300 	orr.w	r3, r3, #33554432	@ 0x2000000
 8001476:	61d3      	str	r3, [r2, #28]

    /* vào init mode */
    CAN1->MCR |= CAN_MCR_INRQ;
 8001478:	4b34      	ldr	r3, [pc, #208]	@ (800154c <Can_Init+0xe4>)
 800147a:	681b      	ldr	r3, [r3, #0]
 800147c:	4a33      	ldr	r2, [pc, #204]	@ (800154c <Can_Init+0xe4>)
 800147e:	f043 0301 	orr.w	r3, r3, #1
 8001482:	6013      	str	r3, [r2, #0]
    while ((CAN1->MSR & CAN_MSR_INAK) == 0u) {}
 8001484:	bf00      	nop
 8001486:	4b31      	ldr	r3, [pc, #196]	@ (800154c <Can_Init+0xe4>)
 8001488:	685b      	ldr	r3, [r3, #4]
 800148a:	f003 0301 	and.w	r3, r3, #1
 800148e:	2b00      	cmp	r3, #0
 8001490:	d0f9      	beq.n	8001486 <Can_Init+0x1e>

    CAN1->MCR &= ~CAN_MCR_SLEEP;
 8001492:	4b2e      	ldr	r3, [pc, #184]	@ (800154c <Can_Init+0xe4>)
 8001494:	681b      	ldr	r3, [r3, #0]
 8001496:	4a2d      	ldr	r2, [pc, #180]	@ (800154c <Can_Init+0xe4>)
 8001498:	f023 0302 	bic.w	r3, r3, #2
 800149c:	6013      	str	r3, [r2, #0]

    /* baudrate 500 kbps với apb1 = 36 mhz */
    CAN1->BTR = (0u << 24) | ((3u - 1u) << 20) | ((14u - 1u) << 16) | (4u - 1u);
 800149e:	4b2b      	ldr	r3, [pc, #172]	@ (800154c <Can_Init+0xe4>)
 80014a0:	4a2b      	ldr	r2, [pc, #172]	@ (8001550 <Can_Init+0xe8>)
 80014a2:	61da      	str	r2, [r3, #28]

    /* filter 0 nhận tất cả id vào fifo0 */
    CAN1->FMR |= CAN_FMR_FINIT;
 80014a4:	4b29      	ldr	r3, [pc, #164]	@ (800154c <Can_Init+0xe4>)
 80014a6:	f8d3 3200 	ldr.w	r3, [r3, #512]	@ 0x200
 80014aa:	4a28      	ldr	r2, [pc, #160]	@ (800154c <Can_Init+0xe4>)
 80014ac:	f043 0301 	orr.w	r3, r3, #1
 80014b0:	f8c2 3200 	str.w	r3, [r2, #512]	@ 0x200
    CAN1->FA1R &= ~1u;
 80014b4:	4b25      	ldr	r3, [pc, #148]	@ (800154c <Can_Init+0xe4>)
 80014b6:	f8d3 321c 	ldr.w	r3, [r3, #540]	@ 0x21c
 80014ba:	4a24      	ldr	r2, [pc, #144]	@ (800154c <Can_Init+0xe4>)
 80014bc:	f023 0301 	bic.w	r3, r3, #1
 80014c0:	f8c2 321c 	str.w	r3, [r2, #540]	@ 0x21c
    CAN1->FS1R |= 1u;
 80014c4:	4b21      	ldr	r3, [pc, #132]	@ (800154c <Can_Init+0xe4>)
 80014c6:	f8d3 320c 	ldr.w	r3, [r3, #524]	@ 0x20c
 80014ca:	4a20      	ldr	r2, [pc, #128]	@ (800154c <Can_Init+0xe4>)
 80014cc:	f043 0301 	orr.w	r3, r3, #1
 80014d0:	f8c2 320c 	str.w	r3, [r2, #524]	@ 0x20c
    CAN1->FM1R &= ~1u;
 80014d4:	4b1d      	ldr	r3, [pc, #116]	@ (800154c <Can_Init+0xe4>)
 80014d6:	f8d3 3204 	ldr.w	r3, [r3, #516]	@ 0x204
 80014da:	4a1c      	ldr	r2, [pc, #112]	@ (800154c <Can_Init+0xe4>)
 80014dc:	f023 0301 	bic.w	r3, r3, #1
 80014e0:	f8c2 3204 	str.w	r3, [r2, #516]	@ 0x204
    CAN1->sFilterRegister[0].FR1 = 0u;
 80014e4:	4b19      	ldr	r3, [pc, #100]	@ (800154c <Can_Init+0xe4>)
 80014e6:	2200      	movs	r2, #0
 80014e8:	f8c3 2240 	str.w	r2, [r3, #576]	@ 0x240
    CAN1->sFilterRegister[0].FR2 = 0u;
 80014ec:	4b17      	ldr	r3, [pc, #92]	@ (800154c <Can_Init+0xe4>)
 80014ee:	2200      	movs	r2, #0
 80014f0:	f8c3 2244 	str.w	r2, [r3, #580]	@ 0x244
    CAN1->FFA1R &= ~1u;
 80014f4:	4b15      	ldr	r3, [pc, #84]	@ (800154c <Can_Init+0xe4>)
 80014f6:	f8d3 3214 	ldr.w	r3, [r3, #532]	@ 0x214
 80014fa:	4a14      	ldr	r2, [pc, #80]	@ (800154c <Can_Init+0xe4>)
 80014fc:	f023 0301 	bic.w	r3, r3, #1
 8001500:	f8c2 3214 	str.w	r3, [r2, #532]	@ 0x214
    CAN1->FA1R |= 1u;
 8001504:	4b11      	ldr	r3, [pc, #68]	@ (800154c <Can_Init+0xe4>)
 8001506:	f8d3 321c 	ldr.w	r3, [r3, #540]	@ 0x21c
 800150a:	4a10      	ldr	r2, [pc, #64]	@ (800154c <Can_Init+0xe4>)
 800150c:	f043 0301 	orr.w	r3, r3, #1
 8001510:	f8c2 321c 	str.w	r3, [r2, #540]	@ 0x21c
    CAN1->FMR &= ~CAN_FMR_FINIT;
 8001514:	4b0d      	ldr	r3, [pc, #52]	@ (800154c <Can_Init+0xe4>)
 8001516:	f8d3 3200 	ldr.w	r3, [r3, #512]	@ 0x200
 800151a:	4a0c      	ldr	r2, [pc, #48]	@ (800154c <Can_Init+0xe4>)
 800151c:	f023 0301 	bic.w	r3, r3, #1
 8001520:	f8c2 3200 	str.w	r3, [r2, #512]	@ 0x200

    /* thoát init mode */
    CAN1->MCR &= ~CAN_MCR_INRQ;
 8001524:	4b09      	ldr	r3, [pc, #36]	@ (800154c <Can_Init+0xe4>)
 8001526:	681b      	ldr	r3, [r3, #0]
 8001528:	4a08      	ldr	r2, [pc, #32]	@ (800154c <Can_Init+0xe4>)
 800152a:	f023 0301 	bic.w	r3, r3, #1
 800152e:	6013      	str	r3, [r2, #0]
    while ((CAN1->MSR & CAN_MSR_INAK) != 0u) {}
 8001530:	bf00      	nop
 8001532:	4b06      	ldr	r3, [pc, #24]	@ (800154c <Can_Init+0xe4>)
 8001534:	685b      	ldr	r3, [r3, #4]
 8001536:	f003 0301 	and.w	r3, r3, #1
 800153a:	2b00      	cmp	r3, #0
 800153c:	d1f9      	bne.n	8001532 <Can_Init+0xca>
}
 800153e:	bf00      	nop
 8001540:	bf00      	nop
 8001542:	46bd      	mov	sp, r7
 8001544:	bc80      	pop	{r7}
 8001546:	4770      	bx	lr
 8001548:	40021000 	.word	0x40021000
 800154c:	40006400 	.word	0x40006400
 8001550:	002d0003 	.word	0x002d0003

08001554 <Can_Read>:

Std_ReturnType Can_Read(Can_PduType* CanPduPtr)
{
 8001554:	b480      	push	{r7}
 8001556:	b089      	sub	sp, #36	@ 0x24
 8001558:	af00      	add	r7, sp, #0
 800155a:	6078      	str	r0, [r7, #4]
    uint32 rdtr;
    uint32 data_low;
    uint32 data_high;
    uint8 i;

    if (CanPduPtr == NULL_PTR) {
 800155c:	687b      	ldr	r3, [r7, #4]
 800155e:	2b00      	cmp	r3, #0
 8001560:	d101      	bne.n	8001566 <Can_Read+0x12>
        return E_NOT_OK;
 8001562:	2301      	movs	r3, #1
 8001564:	e070      	b.n	8001648 <Can_Read+0xf4>
    }

    if ((CAN1->RF0R & 0x03u) == 0u) {
 8001566:	4b3b      	ldr	r3, [pc, #236]	@ (8001654 <Can_Read+0x100>)
 8001568:	68db      	ldr	r3, [r3, #12]
 800156a:	f003 0303 	and.w	r3, r3, #3
 800156e:	2b00      	cmp	r3, #0
 8001570:	d101      	bne.n	8001576 <Can_Read+0x22>
        return E_NOT_OK;
 8001572:	2301      	movs	r3, #1
 8001574:	e068      	b.n	8001648 <Can_Read+0xf4>
    }

    rir = CAN1->sFIFOMailBox[0].RIR;
 8001576:	4b37      	ldr	r3, [pc, #220]	@ (8001654 <Can_Read+0x100>)
 8001578:	f8d3 31b0 	ldr.w	r3, [r3, #432]	@ 0x1b0
 800157c:	61bb      	str	r3, [r7, #24]
    rdtr = CAN1->sFIFOMailBox[0].RDTR;
 800157e:	4b35      	ldr	r3, [pc, #212]	@ (8001654 <Can_Read+0x100>)
 8001580:	f8d3 31b4 	ldr.w	r3, [r3, #436]	@ 0x1b4
 8001584:	617b      	str	r3, [r7, #20]
    data_low = CAN1->sFIFOMailBox[0].RDLR;
 8001586:	4b33      	ldr	r3, [pc, #204]	@ (8001654 <Can_Read+0x100>)
 8001588:	f8d3 31b8 	ldr.w	r3, [r3, #440]	@ 0x1b8
 800158c:	613b      	str	r3, [r7, #16]
    data_high = CAN1->sFIFOMailBox[0].RDHR;
 800158e:	4b31      	ldr	r3, [pc, #196]	@ (8001654 <Can_Read+0x100>)
 8001590:	f8d3 31bc 	ldr.w	r3, [r3, #444]	@ 0x1bc
 8001594:	60fb      	str	r3, [r7, #12]

    /* chỉ nhận standard data frame */
    if (((rir & CAN_RI0R_IDE) != 0u) || ((rir & CAN_RI0R_RTR) != 0u)) {
 8001596:	69bb      	ldr	r3, [r7, #24]
 8001598:	f003 0304 	and.w	r3, r3, #4
 800159c:	2b00      	cmp	r3, #0
 800159e:	d104      	bne.n	80015aa <Can_Read+0x56>
 80015a0:	69bb      	ldr	r3, [r7, #24]
 80015a2:	f003 0302 	and.w	r3, r3, #2
 80015a6:	2b00      	cmp	r3, #0
 80015a8:	d007      	beq.n	80015ba <Can_Read+0x66>
        CAN1->RF0R |= CAN_RF0R_RFOM0;
 80015aa:	4b2a      	ldr	r3, [pc, #168]	@ (8001654 <Can_Read+0x100>)
 80015ac:	68db      	ldr	r3, [r3, #12]
 80015ae:	4a29      	ldr	r2, [pc, #164]	@ (8001654 <Can_Read+0x100>)
 80015b0:	f043 0320 	orr.w	r3, r3, #32
 80015b4:	60d3      	str	r3, [r2, #12]
        return E_NOT_OK;
 80015b6:	2301      	movs	r3, #1
 80015b8:	e046      	b.n	8001648 <Can_Read+0xf4>
    }

    CanPduPtr->CanId = (uint32)(rir >> 21);
 80015ba:	69bb      	ldr	r3, [r7, #24]
 80015bc:	0d5a      	lsrs	r2, r3, #21
 80015be:	687b      	ldr	r3, [r7, #4]
 80015c0:	601a      	str	r2, [r3, #0]
    CanPduPtr->CanDlc = (uint8)(rdtr & 0x0Fu);
 80015c2:	697b      	ldr	r3, [r7, #20]
 80015c4:	b2db      	uxtb	r3, r3
 80015c6:	f003 030f 	and.w	r3, r3, #15
 80015ca:	b2da      	uxtb	r2, r3
 80015cc:	687b      	ldr	r3, [r7, #4]
 80015ce:	711a      	strb	r2, [r3, #4]

    CanPduPtr->CanData[0] = (uint8)((data_low >> 0) & 0xFFu);
 80015d0:	693b      	ldr	r3, [r7, #16]
 80015d2:	b2da      	uxtb	r2, r3
 80015d4:	687b      	ldr	r3, [r7, #4]
 80015d6:	715a      	strb	r2, [r3, #5]
    CanPduPtr->CanData[1] = (uint8)((data_low >> 8) & 0xFFu);
 80015d8:	693b      	ldr	r3, [r7, #16]
 80015da:	0a1b      	lsrs	r3, r3, #8
 80015dc:	b2da      	uxtb	r2, r3
 80015de:	687b      	ldr	r3, [r7, #4]
 80015e0:	719a      	strb	r2, [r3, #6]
    CanPduPtr->CanData[2] = (uint8)((data_low >> 16) & 0xFFu);
 80015e2:	693b      	ldr	r3, [r7, #16]
 80015e4:	0c1b      	lsrs	r3, r3, #16
 80015e6:	b2da      	uxtb	r2, r3
 80015e8:	687b      	ldr	r3, [r7, #4]
 80015ea:	71da      	strb	r2, [r3, #7]
    CanPduPtr->CanData[3] = (uint8)((data_low >> 24) & 0xFFu);
 80015ec:	693b      	ldr	r3, [r7, #16]
 80015ee:	0e1b      	lsrs	r3, r3, #24
 80015f0:	b2da      	uxtb	r2, r3
 80015f2:	687b      	ldr	r3, [r7, #4]
 80015f4:	721a      	strb	r2, [r3, #8]
    CanPduPtr->CanData[4] = (uint8)((data_high >> 0) & 0xFFu);
 80015f6:	68fb      	ldr	r3, [r7, #12]
 80015f8:	b2da      	uxtb	r2, r3
 80015fa:	687b      	ldr	r3, [r7, #4]
 80015fc:	725a      	strb	r2, [r3, #9]
    CanPduPtr->CanData[5] = (uint8)((data_high >> 8) & 0xFFu);
 80015fe:	68fb      	ldr	r3, [r7, #12]
 8001600:	0a1b      	lsrs	r3, r3, #8
 8001602:	b2da      	uxtb	r2, r3
 8001604:	687b      	ldr	r3, [r7, #4]
 8001606:	729a      	strb	r2, [r3, #10]
    CanPduPtr->CanData[6] = (uint8)((data_high >> 16) & 0xFFu);
 8001608:	68fb      	ldr	r3, [r7, #12]
 800160a:	0c1b      	lsrs	r3, r3, #16
 800160c:	b2da      	uxtb	r2, r3
 800160e:	687b      	ldr	r3, [r7, #4]
 8001610:	72da      	strb	r2, [r3, #11]
    CanPduPtr->CanData[7] = (uint8)((data_high >> 24) & 0xFFu);
 8001612:	68fb      	ldr	r3, [r7, #12]
 8001614:	0e1b      	lsrs	r3, r3, #24
 8001616:	b2da      	uxtb	r2, r3
 8001618:	687b      	ldr	r3, [r7, #4]
 800161a:	731a      	strb	r2, [r3, #12]

    for (i = CanPduPtr->CanDlc; i < 8u; i++) {
 800161c:	687b      	ldr	r3, [r7, #4]
 800161e:	791b      	ldrb	r3, [r3, #4]
 8001620:	77fb      	strb	r3, [r7, #31]
 8001622:	e007      	b.n	8001634 <Can_Read+0xe0>
        CanPduPtr->CanData[i] = 0u;
 8001624:	7ffb      	ldrb	r3, [r7, #31]
 8001626:	687a      	ldr	r2, [r7, #4]
 8001628:	4413      	add	r3, r2
 800162a:	2200      	movs	r2, #0
 800162c:	715a      	strb	r2, [r3, #5]
    for (i = CanPduPtr->CanDlc; i < 8u; i++) {
 800162e:	7ffb      	ldrb	r3, [r7, #31]
 8001630:	3301      	adds	r3, #1
 8001632:	77fb      	strb	r3, [r7, #31]
 8001634:	7ffb      	ldrb	r3, [r7, #31]
 8001636:	2b07      	cmp	r3, #7
 8001638:	d9f4      	bls.n	8001624 <Can_Read+0xd0>
    }

    CAN1->RF0R |= CAN_RF0R_RFOM0;
 800163a:	4b06      	ldr	r3, [pc, #24]	@ (8001654 <Can_Read+0x100>)
 800163c:	68db      	ldr	r3, [r3, #12]
 800163e:	4a05      	ldr	r2, [pc, #20]	@ (8001654 <Can_Read+0x100>)
 8001640:	f043 0320 	orr.w	r3, r3, #32
 8001644:	60d3      	str	r3, [r2, #12]

    return E_OK;
 8001646:	2300      	movs	r3, #0
 8001648:	4618      	mov	r0, r3
 800164a:	3724      	adds	r7, #36	@ 0x24
 800164c:	46bd      	mov	sp, r7
 800164e:	bc80      	pop	{r7}
 8001650:	4770      	bx	lr
 8001652:	bf00      	nop
 8001654:	40006400 	.word	0x40006400

08001658 <Mcu_Init>:
#include "Mcu.h"
#include "stm32f1xx.h"

void Mcu_Init(const Mcu_ConfigType* ConfigPtr)
{
 8001658:	b480      	push	{r7}
 800165a:	b083      	sub	sp, #12
 800165c:	af00      	add	r7, sp, #0
 800165e:	6078      	str	r0, [r7, #4]
    if (ConfigPtr == NULL_PTR) {
 8001660:	687b      	ldr	r3, [r7, #4]
 8001662:	2b00      	cmp	r3, #0
        return;
    }
}
 8001664:	370c      	adds	r7, #12
 8001666:	46bd      	mov	sp, r7
 8001668:	bc80      	pop	{r7}
 800166a:	4770      	bx	lr

0800166c <Mcu_InitClock>:

void Mcu_InitClock(void)
{
 800166c:	b480      	push	{r7}
 800166e:	af00      	add	r7, sp, #0
    /* bật hse 8 mhz */
    RCC->CR |= RCC_CR_HSEON;
 8001670:	4b1f      	ldr	r3, [pc, #124]	@ (80016f0 <Mcu_InitClock+0x84>)
 8001672:	681b      	ldr	r3, [r3, #0]
 8001674:	4a1e      	ldr	r2, [pc, #120]	@ (80016f0 <Mcu_InitClock+0x84>)
 8001676:	f443 3380 	orr.w	r3, r3, #65536	@ 0x10000
 800167a:	6013      	str	r3, [r2, #0]
    while ((RCC->CR & RCC_CR_HSERDY) == 0u) {}
 800167c:	bf00      	nop
 800167e:	4b1c      	ldr	r3, [pc, #112]	@ (80016f0 <Mcu_InitClock+0x84>)
 8001680:	681b      	ldr	r3, [r3, #0]
 8001682:	f403 3300 	and.w	r3, r3, #131072	@ 0x20000
 8001686:	2b00      	cmp	r3, #0
 8001688:	d0f9      	beq.n	800167e <Mcu_InitClock+0x12>

    /* cấu hình flash cho 72 mhz */
    FLASH->ACR |= FLASH_ACR_PRFTBE | FLASH_ACR_LATENCY_2;
 800168a:	4b1a      	ldr	r3, [pc, #104]	@ (80016f4 <Mcu_InitClock+0x88>)
 800168c:	681b      	ldr	r3, [r3, #0]
 800168e:	4a19      	ldr	r2, [pc, #100]	@ (80016f4 <Mcu_InitClock+0x88>)
 8001690:	f043 0314 	orr.w	r3, r3, #20
 8001694:	6013      	str	r3, [r2, #0]

    /* ahb = 72 mhz, apb1 = 36 mhz, apb2 = 72 mhz */
    RCC->CFGR |= RCC_CFGR_HPRE_DIV1;
 8001696:	4b16      	ldr	r3, [pc, #88]	@ (80016f0 <Mcu_InitClock+0x84>)
 8001698:	4a15      	ldr	r2, [pc, #84]	@ (80016f0 <Mcu_InitClock+0x84>)
 800169a:	685b      	ldr	r3, [r3, #4]
 800169c:	6053      	str	r3, [r2, #4]
    RCC->CFGR |= RCC_CFGR_PPRE1_DIV2;
 800169e:	4b14      	ldr	r3, [pc, #80]	@ (80016f0 <Mcu_InitClock+0x84>)
 80016a0:	685b      	ldr	r3, [r3, #4]
 80016a2:	4a13      	ldr	r2, [pc, #76]	@ (80016f0 <Mcu_InitClock+0x84>)
 80016a4:	f443 6380 	orr.w	r3, r3, #1024	@ 0x400
 80016a8:	6053      	str	r3, [r2, #4]
    RCC->CFGR |= RCC_CFGR_PPRE2_DIV1;
 80016aa:	4b11      	ldr	r3, [pc, #68]	@ (80016f0 <Mcu_InitClock+0x84>)
 80016ac:	4a10      	ldr	r2, [pc, #64]	@ (80016f0 <Mcu_InitClock+0x84>)
 80016ae:	685b      	ldr	r3, [r3, #4]
 80016b0:	6053      	str	r3, [r2, #4]

    /* pll = hse x9 = 72 mhz */
    RCC->CFGR &= ~(RCC_CFGR_PLLSRC | RCC_CFGR_PLLMULL);
 80016b2:	4b0f      	ldr	r3, [pc, #60]	@ (80016f0 <Mcu_InitClock+0x84>)
 80016b4:	685b      	ldr	r3, [r3, #4]
 80016b6:	4a0e      	ldr	r2, [pc, #56]	@ (80016f0 <Mcu_InitClock+0x84>)
 80016b8:	f423 1374 	bic.w	r3, r3, #3997696	@ 0x3d0000
 80016bc:	6053      	str	r3, [r2, #4]
    RCC->CFGR |= RCC_CFGR_PLLSRC | RCC_CFGR_PLLMULL9;
 80016be:	4b0c      	ldr	r3, [pc, #48]	@ (80016f0 <Mcu_InitClock+0x84>)
 80016c0:	685b      	ldr	r3, [r3, #4]
 80016c2:	4a0b      	ldr	r2, [pc, #44]	@ (80016f0 <Mcu_InitClock+0x84>)
 80016c4:	f443 13e8 	orr.w	r3, r3, #1900544	@ 0x1d0000
 80016c8:	6053      	str	r3, [r2, #4]

    RCC->CR |= RCC_CR_PLLON;
 80016ca:	4b09      	ldr	r3, [pc, #36]	@ (80016f0 <Mcu_InitClock+0x84>)
 80016cc:	681b      	ldr	r3, [r3, #0]
 80016ce:	4a08      	ldr	r2, [pc, #32]	@ (80016f0 <Mcu_InitClock+0x84>)
 80016d0:	f043 7380 	orr.w	r3, r3, #16777216	@ 0x1000000
 80016d4:	6013      	str	r3, [r2, #0]
    while ((RCC->CR & RCC_CR_PLLRDY) == 0u) {}
 80016d6:	bf00      	nop
 80016d8:	4b05      	ldr	r3, [pc, #20]	@ (80016f0 <Mcu_InitClock+0x84>)
 80016da:	681b      	ldr	r3, [r3, #0]
 80016dc:	f003 7300 	and.w	r3, r3, #33554432	@ 0x2000000
 80016e0:	2b00      	cmp	r3, #0
 80016e2:	d0f9      	beq.n	80016d8 <Mcu_InitClock+0x6c>
}
 80016e4:	bf00      	nop
 80016e6:	bf00      	nop
 80016e8:	46bd      	mov	sp, r7
 80016ea:	bc80      	pop	{r7}
 80016ec:	4770      	bx	lr
 80016ee:	bf00      	nop
 80016f0:	40021000 	.word	0x40021000
 80016f4:	40022000 	.word	0x40022000

080016f8 <Mcu_DistributePllClock>:

    return MCU_PLL_UNLOCKED;
}

void Mcu_DistributePllClock(void)
{
 80016f8:	b580      	push	{r7, lr}
 80016fa:	af00      	add	r7, sp, #0
    /* chọn pll làm clock chính */
    RCC->CFGR &= ~RCC_CFGR_SW;
 80016fc:	4b0b      	ldr	r3, [pc, #44]	@ (800172c <Mcu_DistributePllClock+0x34>)
 80016fe:	685b      	ldr	r3, [r3, #4]
 8001700:	4a0a      	ldr	r2, [pc, #40]	@ (800172c <Mcu_DistributePllClock+0x34>)
 8001702:	f023 0303 	bic.w	r3, r3, #3
 8001706:	6053      	str	r3, [r2, #4]
    RCC->CFGR |= RCC_CFGR_SW_PLL;
 8001708:	4b08      	ldr	r3, [pc, #32]	@ (800172c <Mcu_DistributePllClock+0x34>)
 800170a:	685b      	ldr	r3, [r3, #4]
 800170c:	4a07      	ldr	r2, [pc, #28]	@ (800172c <Mcu_DistributePllClock+0x34>)
 800170e:	f043 0302 	orr.w	r3, r3, #2
 8001712:	6053      	str	r3, [r2, #4]
    while ((RCC->CFGR & RCC_CFGR_SWS) != RCC_CFGR_SWS_PLL) {}
 8001714:	bf00      	nop
 8001716:	4b05      	ldr	r3, [pc, #20]	@ (800172c <Mcu_DistributePllClock+0x34>)
 8001718:	685b      	ldr	r3, [r3, #4]
 800171a:	f003 030c 	and.w	r3, r3, #12
 800171e:	2b08      	cmp	r3, #8
 8001720:	d1f9      	bne.n	8001716 <Mcu_DistributePllClock+0x1e>

    SystemCoreClockUpdate();
 8001722:	f000 fbd1 	bl	8001ec8 <SystemCoreClockUpdate>
 8001726:	bf00      	nop
 8001728:	bd80      	pop	{r7, pc}
 800172a:	bf00      	nop
 800172c:	40021000 	.word	0x40021000

08001730 <Port_Init>:
    GPIOC,
    GPIOD
};

void Port_Init(const Port_ConfigType* ConfigPtr)
{
 8001730:	b480      	push	{r7}
 8001732:	b085      	sub	sp, #20
 8001734:	af00      	add	r7, sp, #0
 8001736:	6078      	str	r0, [r7, #4]
    uint8 i;

    if (ConfigPtr == NULL_PTR) {
 8001738:	687b      	ldr	r3, [r7, #4]
 800173a:	2b00      	cmp	r3, #0
 800173c:	d079      	beq.n	8001832 <Port_Init+0x102>
        return;
    }

    /* bật clock gpioa và afio */
    RCC->APB2ENR |= RCC_APB2ENR_IOPAEN |
 800173e:	4b3f      	ldr	r3, [pc, #252]	@ (800183c <Port_Init+0x10c>)
 8001740:	699b      	ldr	r3, [r3, #24]
 8001742:	4a3e      	ldr	r2, [pc, #248]	@ (800183c <Port_Init+0x10c>)
 8001744:	f043 0305 	orr.w	r3, r3, #5
 8001748:	6193      	str	r3, [r2, #24]
                    RCC_APB2ENR_AFIOEN;

    for (i = 0u; i < ConfigPtr->NumOfPins; i++) {
 800174a:	2300      	movs	r3, #0
 800174c:	73fb      	strb	r3, [r7, #15]
 800174e:	e064      	b.n	800181a <Port_Init+0xea>
        uint8 port = ConfigPtr->PinList[i].PortIndex;
 8001750:	687b      	ldr	r3, [r7, #4]
 8001752:	6819      	ldr	r1, [r3, #0]
 8001754:	7bfa      	ldrb	r2, [r7, #15]
 8001756:	4613      	mov	r3, r2
 8001758:	005b      	lsls	r3, r3, #1
 800175a:	4413      	add	r3, r2
 800175c:	440b      	add	r3, r1
 800175e:	781b      	ldrb	r3, [r3, #0]
 8001760:	73bb      	strb	r3, [r7, #14]
        uint8 pin = ConfigPtr->PinList[i].PinNumber;
 8001762:	687b      	ldr	r3, [r7, #4]
 8001764:	6819      	ldr	r1, [r3, #0]
 8001766:	7bfa      	ldrb	r2, [r7, #15]
 8001768:	4613      	mov	r3, r2
 800176a:	005b      	lsls	r3, r3, #1
 800176c:	4413      	add	r3, r2
 800176e:	440b      	add	r3, r1
 8001770:	785b      	ldrb	r3, [r3, #1]
 8001772:	737b      	strb	r3, [r7, #13]
        uint8 cfg = ConfigPtr->PinList[i].ConfigValue;
 8001774:	687b      	ldr	r3, [r7, #4]
 8001776:	6819      	ldr	r1, [r3, #0]
 8001778:	7bfa      	ldrb	r2, [r7, #15]
 800177a:	4613      	mov	r3, r2
 800177c:	005b      	lsls	r3, r3, #1
 800177e:	4413      	add	r3, r2
 8001780:	440b      	add	r3, r1
 8001782:	789b      	ldrb	r3, [r3, #2]
 8001784:	733b      	strb	r3, [r7, #12]

        if (pin < 8u) {
 8001786:	7b7b      	ldrb	r3, [r7, #13]
 8001788:	2b07      	cmp	r3, #7
 800178a:	d820      	bhi.n	80017ce <Port_Init+0x9e>
            Port_GpioBase[port]->CRL &= ~(0x0Fu << (pin * 4u));
 800178c:	7bbb      	ldrb	r3, [r7, #14]
 800178e:	4a2c      	ldr	r2, [pc, #176]	@ (8001840 <Port_Init+0x110>)
 8001790:	f852 3023 	ldr.w	r3, [r2, r3, lsl #2]
 8001794:	6819      	ldr	r1, [r3, #0]
 8001796:	7b7b      	ldrb	r3, [r7, #13]
 8001798:	009b      	lsls	r3, r3, #2
 800179a:	220f      	movs	r2, #15
 800179c:	fa02 f303 	lsl.w	r3, r2, r3
 80017a0:	43da      	mvns	r2, r3
 80017a2:	7bbb      	ldrb	r3, [r7, #14]
 80017a4:	4826      	ldr	r0, [pc, #152]	@ (8001840 <Port_Init+0x110>)
 80017a6:	f850 3023 	ldr.w	r3, [r0, r3, lsl #2]
 80017aa:	400a      	ands	r2, r1
 80017ac:	601a      	str	r2, [r3, #0]
            Port_GpioBase[port]->CRL |= ((uint32)cfg << (pin * 4u));
 80017ae:	7bbb      	ldrb	r3, [r7, #14]
 80017b0:	4a23      	ldr	r2, [pc, #140]	@ (8001840 <Port_Init+0x110>)
 80017b2:	f852 3023 	ldr.w	r3, [r2, r3, lsl #2]
 80017b6:	6819      	ldr	r1, [r3, #0]
 80017b8:	7b3a      	ldrb	r2, [r7, #12]
 80017ba:	7b7b      	ldrb	r3, [r7, #13]
 80017bc:	009b      	lsls	r3, r3, #2
 80017be:	409a      	lsls	r2, r3
 80017c0:	7bbb      	ldrb	r3, [r7, #14]
 80017c2:	481f      	ldr	r0, [pc, #124]	@ (8001840 <Port_Init+0x110>)
 80017c4:	f850 3023 	ldr.w	r3, [r0, r3, lsl #2]
 80017c8:	430a      	orrs	r2, r1
 80017ca:	601a      	str	r2, [r3, #0]
 80017cc:	e022      	b.n	8001814 <Port_Init+0xe4>
        } else {
            uint8 shift = (uint8)((pin - 8u) * 4u);
 80017ce:	7b7b      	ldrb	r3, [r7, #13]
 80017d0:	3b08      	subs	r3, #8
 80017d2:	b2db      	uxtb	r3, r3
 80017d4:	009b      	lsls	r3, r3, #2
 80017d6:	72fb      	strb	r3, [r7, #11]
            Port_GpioBase[port]->CRH &= ~(0x0Fu << shift);
 80017d8:	7bbb      	ldrb	r3, [r7, #14]
 80017da:	4a19      	ldr	r2, [pc, #100]	@ (8001840 <Port_Init+0x110>)
 80017dc:	f852 3023 	ldr.w	r3, [r2, r3, lsl #2]
 80017e0:	6859      	ldr	r1, [r3, #4]
 80017e2:	7afb      	ldrb	r3, [r7, #11]
 80017e4:	220f      	movs	r2, #15
 80017e6:	fa02 f303 	lsl.w	r3, r2, r3
 80017ea:	43da      	mvns	r2, r3
 80017ec:	7bbb      	ldrb	r3, [r7, #14]
 80017ee:	4814      	ldr	r0, [pc, #80]	@ (8001840 <Port_Init+0x110>)
 80017f0:	f850 3023 	ldr.w	r3, [r0, r3, lsl #2]
 80017f4:	400a      	ands	r2, r1
 80017f6:	605a      	str	r2, [r3, #4]
            Port_GpioBase[port]->CRH |= ((uint32)cfg << shift);
 80017f8:	7bbb      	ldrb	r3, [r7, #14]
 80017fa:	4a11      	ldr	r2, [pc, #68]	@ (8001840 <Port_Init+0x110>)
 80017fc:	f852 3023 	ldr.w	r3, [r2, r3, lsl #2]
 8001800:	6859      	ldr	r1, [r3, #4]
 8001802:	7b3a      	ldrb	r2, [r7, #12]
 8001804:	7afb      	ldrb	r3, [r7, #11]
 8001806:	409a      	lsls	r2, r3
 8001808:	7bbb      	ldrb	r3, [r7, #14]
 800180a:	480d      	ldr	r0, [pc, #52]	@ (8001840 <Port_Init+0x110>)
 800180c:	f850 3023 	ldr.w	r3, [r0, r3, lsl #2]
 8001810:	430a      	orrs	r2, r1
 8001812:	605a      	str	r2, [r3, #4]
    for (i = 0u; i < ConfigPtr->NumOfPins; i++) {
 8001814:	7bfb      	ldrb	r3, [r7, #15]
 8001816:	3301      	adds	r3, #1
 8001818:	73fb      	strb	r3, [r7, #15]
 800181a:	687b      	ldr	r3, [r7, #4]
 800181c:	791b      	ldrb	r3, [r3, #4]
 800181e:	7bfa      	ldrb	r2, [r7, #15]
 8001820:	429a      	cmp	r2, r3
 8001822:	d395      	bcc.n	8001750 <Port_Init+0x20>
        }
    }

    /* kéo lên cho can rx */
    GPIOA->ODR |= (1u << 11);
 8001824:	4b07      	ldr	r3, [pc, #28]	@ (8001844 <Port_Init+0x114>)
 8001826:	68db      	ldr	r3, [r3, #12]
 8001828:	4a06      	ldr	r2, [pc, #24]	@ (8001844 <Port_Init+0x114>)
 800182a:	f443 6300 	orr.w	r3, r3, #2048	@ 0x800
 800182e:	60d3      	str	r3, [r2, #12]
 8001830:	e000      	b.n	8001834 <Port_Init+0x104>
        return;
 8001832:	bf00      	nop
}
 8001834:	3714      	adds	r7, #20
 8001836:	46bd      	mov	sp, r7
 8001838:	bc80      	pop	{r7}
 800183a:	4770      	bx	lr
 800183c:	40021000 	.word	0x40021000
 8001840:	080021fc 	.word	0x080021fc
 8001844:	40010800 	.word	0x40010800

08001848 <Uart_Init>:
#include "Uart.h"
#include "stm32f1xx.h"

void Uart_Init(void)
{
 8001848:	b480      	push	{r7}
 800184a:	af00      	add	r7, sp, #0
    /* bật clock cho usart1 */
    RCC->APB2ENR |= RCC_APB2ENR_USART1EN;
 800184c:	4b08      	ldr	r3, [pc, #32]	@ (8001870 <Uart_Init+0x28>)
 800184e:	699b      	ldr	r3, [r3, #24]
 8001850:	4a07      	ldr	r2, [pc, #28]	@ (8001870 <Uart_Init+0x28>)
 8001852:	f443 4380 	orr.w	r3, r3, #16384	@ 0x4000
 8001856:	6193      	str	r3, [r2, #24]

    /* baudrate 115200 với pclk2 = 72 mhz */
    USART1->BRR = 0x271u;
 8001858:	4b06      	ldr	r3, [pc, #24]	@ (8001874 <Uart_Init+0x2c>)
 800185a:	f240 2271 	movw	r2, #625	@ 0x271
 800185e:	609a      	str	r2, [r3, #8]

    /* bật uart, tx, rx */
    USART1->CR1 = USART_CR1_UE | USART_CR1_TE | USART_CR1_RE;
 8001860:	4b04      	ldr	r3, [pc, #16]	@ (8001874 <Uart_Init+0x2c>)
 8001862:	f242 020c 	movw	r2, #8204	@ 0x200c
 8001866:	60da      	str	r2, [r3, #12]
}
 8001868:	bf00      	nop
 800186a:	46bd      	mov	sp, r7
 800186c:	bc80      	pop	{r7}
 800186e:	4770      	bx	lr
 8001870:	40021000 	.word	0x40021000
 8001874:	40013800 	.word	0x40013800

08001878 <Uart_SendChar>:

void Uart_SendChar(uint8 data)
{
 8001878:	b480      	push	{r7}
 800187a:	b083      	sub	sp, #12
 800187c:	af00      	add	r7, sp, #0
 800187e:	4603      	mov	r3, r0
 8001880:	71fb      	strb	r3, [r7, #7]
    while ((USART1->SR & USART_SR_TXE) == 0u) {}
 8001882:	bf00      	nop
 8001884:	4b06      	ldr	r3, [pc, #24]	@ (80018a0 <Uart_SendChar+0x28>)
 8001886:	681b      	ldr	r3, [r3, #0]
 8001888:	f003 0380 	and.w	r3, r3, #128	@ 0x80
 800188c:	2b00      	cmp	r3, #0
 800188e:	d0f9      	beq.n	8001884 <Uart_SendChar+0xc>
    USART1->DR = (uint16)data;
 8001890:	4a03      	ldr	r2, [pc, #12]	@ (80018a0 <Uart_SendChar+0x28>)
 8001892:	79fb      	ldrb	r3, [r7, #7]
 8001894:	6053      	str	r3, [r2, #4]
}
 8001896:	bf00      	nop
 8001898:	370c      	adds	r7, #12
 800189a:	46bd      	mov	sp, r7
 800189c:	bc80      	pop	{r7}
 800189e:	4770      	bx	lr
 80018a0:	40013800 	.word	0x40013800

080018a4 <Uart_SendString>:

void Uart_SendString(const char* str)
{
 80018a4:	b580      	push	{r7, lr}
 80018a6:	b082      	sub	sp, #8
 80018a8:	af00      	add	r7, sp, #0
 80018aa:	6078      	str	r0, [r7, #4]
    if (str == NULL_PTR) {
 80018ac:	687b      	ldr	r3, [r7, #4]
 80018ae:	2b00      	cmp	r3, #0
 80018b0:	d00d      	beq.n	80018ce <Uart_SendString+0x2a>
        return;
    }

    while (*str != '\0') {
 80018b2:	e007      	b.n	80018c4 <Uart_SendString+0x20>
        Uart_SendChar((uint8)*str);
 80018b4:	687b      	ldr	r3, [r7, #4]
 80018b6:	781b      	ldrb	r3, [r3, #0]
 80018b8:	4618      	mov	r0, r3
 80018ba:	f7ff ffdd 	bl	8001878 <Uart_SendChar>
        str++;
 80018be:	687b      	ldr	r3, [r7, #4]
 80018c0:	3301      	adds	r3, #1
 80018c2:	607b      	str	r3, [r7, #4]
    while (*str != '\0') {
 80018c4:	687b      	ldr	r3, [r7, #4]
 80018c6:	781b      	ldrb	r3, [r3, #0]
 80018c8:	2b00      	cmp	r3, #0
 80018ca:	d1f3      	bne.n	80018b4 <Uart_SendString+0x10>
 80018cc:	e000      	b.n	80018d0 <Uart_SendString+0x2c>
        return;
 80018ce:	bf00      	nop
    }
}
 80018d0:	3708      	adds	r7, #8
 80018d2:	46bd      	mov	sp, r7
 80018d4:	bd80      	pop	{r7, pc}

080018d6 <Uart_SendBuffer>:
        frac_part -= (float32)((uint8)frac_part);
    }
}

void Uart_SendBuffer(const uint8* data, uint16 length)
{
 80018d6:	b580      	push	{r7, lr}
 80018d8:	b084      	sub	sp, #16
 80018da:	af00      	add	r7, sp, #0
 80018dc:	6078      	str	r0, [r7, #4]
 80018de:	460b      	mov	r3, r1
 80018e0:	807b      	strh	r3, [r7, #2]
    uint16 i;

    if (data == NULL_PTR) {
 80018e2:	687b      	ldr	r3, [r7, #4]
 80018e4:	2b00      	cmp	r3, #0
 80018e6:	d011      	beq.n	800190c <Uart_SendBuffer+0x36>
        return;
    }

    for (i = 0u; i < length; i++) {
 80018e8:	2300      	movs	r3, #0
 80018ea:	81fb      	strh	r3, [r7, #14]
 80018ec:	e009      	b.n	8001902 <Uart_SendBuffer+0x2c>
        Uart_SendChar(data[i]);
 80018ee:	89fb      	ldrh	r3, [r7, #14]
 80018f0:	687a      	ldr	r2, [r7, #4]
 80018f2:	4413      	add	r3, r2
 80018f4:	781b      	ldrb	r3, [r3, #0]
 80018f6:	4618      	mov	r0, r3
 80018f8:	f7ff ffbe 	bl	8001878 <Uart_SendChar>
    for (i = 0u; i < length; i++) {
 80018fc:	89fb      	ldrh	r3, [r7, #14]
 80018fe:	3301      	adds	r3, #1
 8001900:	81fb      	strh	r3, [r7, #14]
 8001902:	89fa      	ldrh	r2, [r7, #14]
 8001904:	887b      	ldrh	r3, [r7, #2]
 8001906:	429a      	cmp	r2, r3
 8001908:	d3f1      	bcc.n	80018ee <Uart_SendBuffer+0x18>
 800190a:	e000      	b.n	800190e <Uart_SendBuffer+0x38>
        return;
 800190c:	bf00      	nop
    }
 800190e:	3710      	adds	r7, #16
 8001910:	46bd      	mov	sp, r7
 8001912:	bd80      	pop	{r7, pc}

08001914 <Rte_DecodeRxPdu>:
static float32 Rte_Buffer_Alpha = 0.9f;
static float32 Rte_Buffer_SimSpeed = 0.0f;
static uint8 Rte_Buffer_Status = 0u;

static void Rte_DecodeRxPdu(const Can_PduType* RxPdu)
{
 8001914:	b580      	push	{r7, lr}
 8001916:	b084      	sub	sp, #16
 8001918:	af00      	add	r7, sp, #0
 800191a:	6078      	str	r0, [r7, #4]
    if (RxPdu == NULL_PTR) {
 800191c:	687b      	ldr	r3, [r7, #4]
 800191e:	2b00      	cmp	r3, #0
 8001920:	f000 8086 	beq.w	8001a30 <Rte_DecodeRxPdu+0x11c>
        return;
    }

    if ((RxPdu->CanId == 0x100u) && (RxPdu->CanDlc >= 6u)) {
 8001924:	687b      	ldr	r3, [r7, #4]
 8001926:	681b      	ldr	r3, [r3, #0]
 8001928:	f5b3 7f80 	cmp.w	r3, #256	@ 0x100
 800192c:	d128      	bne.n	8001980 <Rte_DecodeRxPdu+0x6c>
 800192e:	687b      	ldr	r3, [r7, #4]
 8001930:	791b      	ldrb	r3, [r3, #4]
 8001932:	2b05      	cmp	r3, #5
 8001934:	d924      	bls.n	8001980 <Rte_DecodeRxPdu+0x6c>
        Rte_Buffer_FrontUltra = (uint16)(((uint16)RxPdu->CanData[1] << 8) | RxPdu->CanData[0]);
 8001936:	687b      	ldr	r3, [r7, #4]
 8001938:	799b      	ldrb	r3, [r3, #6]
 800193a:	021b      	lsls	r3, r3, #8
 800193c:	b21a      	sxth	r2, r3
 800193e:	687b      	ldr	r3, [r7, #4]
 8001940:	795b      	ldrb	r3, [r3, #5]
 8001942:	b21b      	sxth	r3, r3
 8001944:	4313      	orrs	r3, r2
 8001946:	b21b      	sxth	r3, r3
 8001948:	b29a      	uxth	r2, r3
 800194a:	4b3b      	ldr	r3, [pc, #236]	@ (8001a38 <Rte_DecodeRxPdu+0x124>)
 800194c:	801a      	strh	r2, [r3, #0]
        Rte_Buffer_Fd = (uint16)(((uint16)RxPdu->CanData[3] << 8) | RxPdu->CanData[2]);
 800194e:	687b      	ldr	r3, [r7, #4]
 8001950:	7a1b      	ldrb	r3, [r3, #8]
 8001952:	021b      	lsls	r3, r3, #8
 8001954:	b21a      	sxth	r2, r3
 8001956:	687b      	ldr	r3, [r7, #4]
 8001958:	79db      	ldrb	r3, [r3, #7]
 800195a:	b21b      	sxth	r3, r3
 800195c:	4313      	orrs	r3, r2
 800195e:	b21b      	sxth	r3, r3
 8001960:	b29a      	uxth	r2, r3
 8001962:	4b36      	ldr	r3, [pc, #216]	@ (8001a3c <Rte_DecodeRxPdu+0x128>)
 8001964:	801a      	strh	r2, [r3, #0]
        Rte_Buffer_Lidar = (uint16)(((uint16)RxPdu->CanData[5] << 8) | RxPdu->CanData[4]);
 8001966:	687b      	ldr	r3, [r7, #4]
 8001968:	7a9b      	ldrb	r3, [r3, #10]
 800196a:	021b      	lsls	r3, r3, #8
 800196c:	b21a      	sxth	r2, r3
 800196e:	687b      	ldr	r3, [r7, #4]
 8001970:	7a5b      	ldrb	r3, [r3, #9]
 8001972:	b21b      	sxth	r3, r3
 8001974:	4313      	orrs	r3, r2
 8001976:	b21b      	sxth	r3, r3
 8001978:	b29a      	uxth	r2, r3
 800197a:	4b31      	ldr	r3, [pc, #196]	@ (8001a40 <Rte_DecodeRxPdu+0x12c>)
 800197c:	801a      	strh	r2, [r3, #0]
 800197e:	e058      	b.n	8001a32 <Rte_DecodeRxPdu+0x11e>
    }
    else if ((RxPdu->CanId == 0x101u) && (RxPdu->CanDlc >= 4u)) {
 8001980:	687b      	ldr	r3, [r7, #4]
 8001982:	681b      	ldr	r3, [r3, #0]
 8001984:	f240 1201 	movw	r2, #257	@ 0x101
 8001988:	4293      	cmp	r3, r2
 800198a:	d11c      	bne.n	80019c6 <Rte_DecodeRxPdu+0xb2>
 800198c:	687b      	ldr	r3, [r7, #4]
 800198e:	791b      	ldrb	r3, [r3, #4]
 8001990:	2b03      	cmp	r3, #3
 8001992:	d918      	bls.n	80019c6 <Rte_DecodeRxPdu+0xb2>
        Rte_Buffer_LeftUltra = (uint16)(((uint16)RxPdu->CanData[1] << 8) | RxPdu->CanData[0]);
 8001994:	687b      	ldr	r3, [r7, #4]
 8001996:	799b      	ldrb	r3, [r3, #6]
 8001998:	021b      	lsls	r3, r3, #8
 800199a:	b21a      	sxth	r2, r3
 800199c:	687b      	ldr	r3, [r7, #4]
 800199e:	795b      	ldrb	r3, [r3, #5]
 80019a0:	b21b      	sxth	r3, r3
 80019a2:	4313      	orrs	r3, r2
 80019a4:	b21b      	sxth	r3, r3
 80019a6:	b29a      	uxth	r2, r3
 80019a8:	4b26      	ldr	r3, [pc, #152]	@ (8001a44 <Rte_DecodeRxPdu+0x130>)
 80019aa:	801a      	strh	r2, [r3, #0]
        Rte_Buffer_RightUltra = (uint16)(((uint16)RxPdu->CanData[3] << 8) | RxPdu->CanData[2]);
 80019ac:	687b      	ldr	r3, [r7, #4]
 80019ae:	7a1b      	ldrb	r3, [r3, #8]
 80019b0:	021b      	lsls	r3, r3, #8
 80019b2:	b21a      	sxth	r2, r3
 80019b4:	687b      	ldr	r3, [r7, #4]
 80019b6:	79db      	ldrb	r3, [r3, #7]
 80019b8:	b21b      	sxth	r3, r3
 80019ba:	4313      	orrs	r3, r2
 80019bc:	b21b      	sxth	r3, r3
 80019be:	b29a      	uxth	r2, r3
 80019c0:	4b21      	ldr	r3, [pc, #132]	@ (8001a48 <Rte_DecodeRxPdu+0x134>)
 80019c2:	801a      	strh	r2, [r3, #0]
 80019c4:	e035      	b.n	8001a32 <Rte_DecodeRxPdu+0x11e>
    }
    else if ((RxPdu->CanId == 0x102u) && (RxPdu->CanDlc >= 4u)) {
 80019c6:	687b      	ldr	r3, [r7, #4]
 80019c8:	681b      	ldr	r3, [r3, #0]
 80019ca:	f5b3 7f81 	cmp.w	r3, #258	@ 0x102
 80019ce:	d130      	bne.n	8001a32 <Rte_DecodeRxPdu+0x11e>
 80019d0:	687b      	ldr	r3, [r7, #4]
 80019d2:	791b      	ldrb	r3, [r3, #4]
 80019d4:	2b03      	cmp	r3, #3
 80019d6:	d92c      	bls.n	8001a32 <Rte_DecodeRxPdu+0x11e>
        uint8 alpha_scaled;
        uint16 sim_speed_scaled;

        alpha_scaled = RxPdu->CanData[0];
 80019d8:	687b      	ldr	r3, [r7, #4]
 80019da:	795b      	ldrb	r3, [r3, #5]
 80019dc:	73fb      	strb	r3, [r7, #15]
        sim_speed_scaled = (uint16)(((uint16)RxPdu->CanData[2] << 8) | RxPdu->CanData[1]);
 80019de:	687b      	ldr	r3, [r7, #4]
 80019e0:	79db      	ldrb	r3, [r3, #7]
 80019e2:	021b      	lsls	r3, r3, #8
 80019e4:	b21a      	sxth	r2, r3
 80019e6:	687b      	ldr	r3, [r7, #4]
 80019e8:	799b      	ldrb	r3, [r3, #6]
 80019ea:	b21b      	sxth	r3, r3
 80019ec:	4313      	orrs	r3, r2
 80019ee:	b21b      	sxth	r3, r3
 80019f0:	81bb      	strh	r3, [r7, #12]

        Rte_Buffer_Alpha = (float32)alpha_scaled / 100.0f;
 80019f2:	7bfb      	ldrb	r3, [r7, #15]
 80019f4:	4618      	mov	r0, r3
 80019f6:	f7fe fc5f 	bl	80002b8 <__aeabi_ui2f>
 80019fa:	4603      	mov	r3, r0
 80019fc:	4913      	ldr	r1, [pc, #76]	@ (8001a4c <Rte_DecodeRxPdu+0x138>)
 80019fe:	4618      	mov	r0, r3
 8001a00:	f7fe fd66 	bl	80004d0 <__aeabi_fdiv>
 8001a04:	4603      	mov	r3, r0
 8001a06:	461a      	mov	r2, r3
 8001a08:	4b11      	ldr	r3, [pc, #68]	@ (8001a50 <Rte_DecodeRxPdu+0x13c>)
 8001a0a:	601a      	str	r2, [r3, #0]
        Rte_Buffer_SimSpeed = (float32)sim_speed_scaled / 100.0f;
 8001a0c:	89bb      	ldrh	r3, [r7, #12]
 8001a0e:	4618      	mov	r0, r3
 8001a10:	f7fe fc52 	bl	80002b8 <__aeabi_ui2f>
 8001a14:	4603      	mov	r3, r0
 8001a16:	490d      	ldr	r1, [pc, #52]	@ (8001a4c <Rte_DecodeRxPdu+0x138>)
 8001a18:	4618      	mov	r0, r3
 8001a1a:	f7fe fd59 	bl	80004d0 <__aeabi_fdiv>
 8001a1e:	4603      	mov	r3, r0
 8001a20:	461a      	mov	r2, r3
 8001a22:	4b0c      	ldr	r3, [pc, #48]	@ (8001a54 <Rte_DecodeRxPdu+0x140>)
 8001a24:	601a      	str	r2, [r3, #0]
        Rte_Buffer_Status = RxPdu->CanData[3];
 8001a26:	687b      	ldr	r3, [r7, #4]
 8001a28:	7a1a      	ldrb	r2, [r3, #8]
 8001a2a:	4b0b      	ldr	r3, [pc, #44]	@ (8001a58 <Rte_DecodeRxPdu+0x144>)
 8001a2c:	701a      	strb	r2, [r3, #0]
 8001a2e:	e000      	b.n	8001a32 <Rte_DecodeRxPdu+0x11e>
        return;
 8001a30:	bf00      	nop
    }
    else {}
}
 8001a32:	3710      	adds	r7, #16
 8001a34:	46bd      	mov	sp, r7
 8001a36:	bd80      	pop	{r7, pc}
 8001a38:	20000008 	.word	0x20000008
 8001a3c:	2000005c 	.word	0x2000005c
 8001a40:	2000000a 	.word	0x2000000a
 8001a44:	2000000c 	.word	0x2000000c
 8001a48:	2000000e 	.word	0x2000000e
 8001a4c:	42c80000 	.word	0x42c80000
 8001a50:	20000010 	.word	0x20000010
 8001a54:	20000060 	.word	0x20000060
 8001a58:	20000064 	.word	0x20000064

08001a5c <Rte_Update_Inputs_Task10ms>:

void Rte_Update_Inputs_Task10ms(void)
{
 8001a5c:	b580      	push	{r7, lr}
 8001a5e:	b086      	sub	sp, #24
 8001a60:	af00      	add	r7, sp, #0
    Can_PduType RxPdu;
    uint8 count;

    count = 0u;
 8001a62:	2300      	movs	r3, #0
 8001a64:	75fb      	strb	r3, [r7, #23]
    while ((PduR_CanIfRxIndication() == E_OK) && (count < RTE_MAX_RX_PULL_PER_TASK)) {
 8001a66:	e002      	b.n	8001a6e <Rte_Update_Inputs_Task10ms+0x12>
        count++;
 8001a68:	7dfb      	ldrb	r3, [r7, #23]
 8001a6a:	3301      	adds	r3, #1
 8001a6c:	75fb      	strb	r3, [r7, #23]
    while ((PduR_CanIfRxIndication() == E_OK) && (count < RTE_MAX_RX_PULL_PER_TASK)) {
 8001a6e:	f000 f9a3 	bl	8001db8 <PduR_CanIfRxIndication>
 8001a72:	4603      	mov	r3, r0
 8001a74:	2b00      	cmp	r3, #0
 8001a76:	d102      	bne.n	8001a7e <Rte_Update_Inputs_Task10ms+0x22>
 8001a78:	7dfb      	ldrb	r3, [r7, #23]
 8001a7a:	2b07      	cmp	r3, #7
 8001a7c:	d9f4      	bls.n	8001a68 <Rte_Update_Inputs_Task10ms+0xc>
    }

    count = 0u;
 8001a7e:	2300      	movs	r3, #0
 8001a80:	75fb      	strb	r3, [r7, #23]
    while ((Com_Receive(&RxPdu) == E_OK) && (count < RTE_MAX_COM_READ_PER_TASK)) {
 8001a82:	e006      	b.n	8001a92 <Rte_Update_Inputs_Task10ms+0x36>
        Rte_DecodeRxPdu(&RxPdu);
 8001a84:	1d3b      	adds	r3, r7, #4
 8001a86:	4618      	mov	r0, r3
 8001a88:	f7ff ff44 	bl	8001914 <Rte_DecodeRxPdu>
        count++;
 8001a8c:	7dfb      	ldrb	r3, [r7, #23]
 8001a8e:	3301      	adds	r3, #1
 8001a90:	75fb      	strb	r3, [r7, #23]
    while ((Com_Receive(&RxPdu) == E_OK) && (count < RTE_MAX_COM_READ_PER_TASK)) {
 8001a92:	1d3b      	adds	r3, r7, #4
 8001a94:	4618      	mov	r0, r3
 8001a96:	f000 f8c3 	bl	8001c20 <Com_Receive>
 8001a9a:	4603      	mov	r3, r0
 8001a9c:	2b00      	cmp	r3, #0
 8001a9e:	d102      	bne.n	8001aa6 <Rte_Update_Inputs_Task10ms+0x4a>
 8001aa0:	7dfb      	ldrb	r3, [r7, #23]
 8001aa2:	2b07      	cmp	r3, #7
 8001aa4:	d9ee      	bls.n	8001a84 <Rte_Update_Inputs_Task10ms+0x28>
    }
}
 8001aa6:	bf00      	nop
 8001aa8:	3718      	adds	r7, #24
 8001aaa:	46bd      	mov	sp, r7
 8001aac:	bd80      	pop	{r7, pc}
	...

08001ab0 <Rte_Read_RpMsg100_FrontObstacle>:

Std_ReturnType Rte_Read_RpMsg100_FrontObstacle(uint16* FrontUltraPtr, uint16* FdPtr, uint16* LidarPtr)
{
 8001ab0:	b480      	push	{r7}
 8001ab2:	b085      	sub	sp, #20
 8001ab4:	af00      	add	r7, sp, #0
 8001ab6:	60f8      	str	r0, [r7, #12]
 8001ab8:	60b9      	str	r1, [r7, #8]
 8001aba:	607a      	str	r2, [r7, #4]
    if ((FrontUltraPtr == NULL_PTR) || (FdPtr == NULL_PTR) || (LidarPtr == NULL_PTR)) {
 8001abc:	68fb      	ldr	r3, [r7, #12]
 8001abe:	2b00      	cmp	r3, #0
 8001ac0:	d005      	beq.n	8001ace <Rte_Read_RpMsg100_FrontObstacle+0x1e>
 8001ac2:	68bb      	ldr	r3, [r7, #8]
 8001ac4:	2b00      	cmp	r3, #0
 8001ac6:	d002      	beq.n	8001ace <Rte_Read_RpMsg100_FrontObstacle+0x1e>
 8001ac8:	687b      	ldr	r3, [r7, #4]
 8001aca:	2b00      	cmp	r3, #0
 8001acc:	d101      	bne.n	8001ad2 <Rte_Read_RpMsg100_FrontObstacle+0x22>
        return E_NOT_OK;
 8001ace:	2301      	movs	r3, #1
 8001ad0:	e00c      	b.n	8001aec <Rte_Read_RpMsg100_FrontObstacle+0x3c>
    }

    *FrontUltraPtr = Rte_Buffer_FrontUltra;
 8001ad2:	4b09      	ldr	r3, [pc, #36]	@ (8001af8 <Rte_Read_RpMsg100_FrontObstacle+0x48>)
 8001ad4:	881a      	ldrh	r2, [r3, #0]
 8001ad6:	68fb      	ldr	r3, [r7, #12]
 8001ad8:	801a      	strh	r2, [r3, #0]
    *FdPtr = Rte_Buffer_Fd;
 8001ada:	4b08      	ldr	r3, [pc, #32]	@ (8001afc <Rte_Read_RpMsg100_FrontObstacle+0x4c>)
 8001adc:	881a      	ldrh	r2, [r3, #0]
 8001ade:	68bb      	ldr	r3, [r7, #8]
 8001ae0:	801a      	strh	r2, [r3, #0]
    *LidarPtr = Rte_Buffer_Lidar;
 8001ae2:	4b07      	ldr	r3, [pc, #28]	@ (8001b00 <Rte_Read_RpMsg100_FrontObstacle+0x50>)
 8001ae4:	881a      	ldrh	r2, [r3, #0]
 8001ae6:	687b      	ldr	r3, [r7, #4]
 8001ae8:	801a      	strh	r2, [r3, #0]

    return E_OK;
 8001aea:	2300      	movs	r3, #0
}
 8001aec:	4618      	mov	r0, r3
 8001aee:	3714      	adds	r7, #20
 8001af0:	46bd      	mov	sp, r7
 8001af2:	bc80      	pop	{r7}
 8001af4:	4770      	bx	lr
 8001af6:	bf00      	nop
 8001af8:	20000008 	.word	0x20000008
 8001afc:	2000005c 	.word	0x2000005c
 8001b00:	2000000a 	.word	0x2000000a

08001b04 <Rte_Read_RpMsg101_BlindSpot>:

Std_ReturnType Rte_Read_RpMsg101_BlindSpot(uint16* LeftUltraPtr, uint16* RightUltraPtr)
{
 8001b04:	b480      	push	{r7}
 8001b06:	b083      	sub	sp, #12
 8001b08:	af00      	add	r7, sp, #0
 8001b0a:	6078      	str	r0, [r7, #4]
 8001b0c:	6039      	str	r1, [r7, #0]
    if ((LeftUltraPtr == NULL_PTR) || (RightUltraPtr == NULL_PTR)) {
 8001b0e:	687b      	ldr	r3, [r7, #4]
 8001b10:	2b00      	cmp	r3, #0
 8001b12:	d002      	beq.n	8001b1a <Rte_Read_RpMsg101_BlindSpot+0x16>
 8001b14:	683b      	ldr	r3, [r7, #0]
 8001b16:	2b00      	cmp	r3, #0
 8001b18:	d101      	bne.n	8001b1e <Rte_Read_RpMsg101_BlindSpot+0x1a>
        return E_NOT_OK;
 8001b1a:	2301      	movs	r3, #1
 8001b1c:	e008      	b.n	8001b30 <Rte_Read_RpMsg101_BlindSpot+0x2c>
    }

    *LeftUltraPtr = Rte_Buffer_LeftUltra;
 8001b1e:	4b07      	ldr	r3, [pc, #28]	@ (8001b3c <Rte_Read_RpMsg101_BlindSpot+0x38>)
 8001b20:	881a      	ldrh	r2, [r3, #0]
 8001b22:	687b      	ldr	r3, [r7, #4]
 8001b24:	801a      	strh	r2, [r3, #0]
    *RightUltraPtr = Rte_Buffer_RightUltra;
 8001b26:	4b06      	ldr	r3, [pc, #24]	@ (8001b40 <Rte_Read_RpMsg101_BlindSpot+0x3c>)
 8001b28:	881a      	ldrh	r2, [r3, #0]
 8001b2a:	683b      	ldr	r3, [r7, #0]
 8001b2c:	801a      	strh	r2, [r3, #0]

    return E_OK;
 8001b2e:	2300      	movs	r3, #0
}
 8001b30:	4618      	mov	r0, r3
 8001b32:	370c      	adds	r7, #12
 8001b34:	46bd      	mov	sp, r7
 8001b36:	bc80      	pop	{r7}
 8001b38:	4770      	bx	lr
 8001b3a:	bf00      	nop
 8001b3c:	2000000c 	.word	0x2000000c
 8001b40:	2000000e 	.word	0x2000000e

08001b44 <Rte_Read_RpMsg102_SysStat>:

Std_ReturnType Rte_Read_RpMsg102_SysStat(float32* AlphaPtr, float32* SimSpeedPtr, uint8* StatusPtr)
{
 8001b44:	b480      	push	{r7}
 8001b46:	b085      	sub	sp, #20
 8001b48:	af00      	add	r7, sp, #0
 8001b4a:	60f8      	str	r0, [r7, #12]
 8001b4c:	60b9      	str	r1, [r7, #8]
 8001b4e:	607a      	str	r2, [r7, #4]
    if ((AlphaPtr == NULL_PTR) || (SimSpeedPtr == NULL_PTR) || (StatusPtr == NULL_PTR)) {
 8001b50:	68fb      	ldr	r3, [r7, #12]
 8001b52:	2b00      	cmp	r3, #0
 8001b54:	d005      	beq.n	8001b62 <Rte_Read_RpMsg102_SysStat+0x1e>
 8001b56:	68bb      	ldr	r3, [r7, #8]
 8001b58:	2b00      	cmp	r3, #0
 8001b5a:	d002      	beq.n	8001b62 <Rte_Read_RpMsg102_SysStat+0x1e>
 8001b5c:	687b      	ldr	r3, [r7, #4]
 8001b5e:	2b00      	cmp	r3, #0
 8001b60:	d101      	bne.n	8001b66 <Rte_Read_RpMsg102_SysStat+0x22>
        return E_NOT_OK;
 8001b62:	2301      	movs	r3, #1
 8001b64:	e00c      	b.n	8001b80 <Rte_Read_RpMsg102_SysStat+0x3c>
    }

    *AlphaPtr = Rte_Buffer_Alpha;
 8001b66:	4b09      	ldr	r3, [pc, #36]	@ (8001b8c <Rte_Read_RpMsg102_SysStat+0x48>)
 8001b68:	681a      	ldr	r2, [r3, #0]
 8001b6a:	68fb      	ldr	r3, [r7, #12]
 8001b6c:	601a      	str	r2, [r3, #0]
    *SimSpeedPtr = Rte_Buffer_SimSpeed;
 8001b6e:	4b08      	ldr	r3, [pc, #32]	@ (8001b90 <Rte_Read_RpMsg102_SysStat+0x4c>)
 8001b70:	681a      	ldr	r2, [r3, #0]
 8001b72:	68bb      	ldr	r3, [r7, #8]
 8001b74:	601a      	str	r2, [r3, #0]
    *StatusPtr = Rte_Buffer_Status;
 8001b76:	4b07      	ldr	r3, [pc, #28]	@ (8001b94 <Rte_Read_RpMsg102_SysStat+0x50>)
 8001b78:	781a      	ldrb	r2, [r3, #0]
 8001b7a:	687b      	ldr	r3, [r7, #4]
 8001b7c:	701a      	strb	r2, [r3, #0]

    return E_OK;
 8001b7e:	2300      	movs	r3, #0
}
 8001b80:	4618      	mov	r0, r3
 8001b82:	3714      	adds	r7, #20
 8001b84:	46bd      	mov	sp, r7
 8001b86:	bc80      	pop	{r7}
 8001b88:	4770      	bx	lr
 8001b8a:	bf00      	nop
 8001b8c:	20000010 	.word	0x20000010
 8001b90:	20000060 	.word	0x20000060
 8001b94:	20000064 	.word	0x20000064

08001b98 <Com_RxIndication>:
static uint8 Com_RxHead = 0u;
static uint8 Com_RxTail = 0u;
static uint8 Com_RxCount = 0u;

Std_ReturnType Com_RxIndication(const Can_PduType* CanPduPtr)
{
 8001b98:	b490      	push	{r4, r7}
 8001b9a:	b082      	sub	sp, #8
 8001b9c:	af00      	add	r7, sp, #0
 8001b9e:	6078      	str	r0, [r7, #4]
    if (CanPduPtr == NULL_PTR) {
 8001ba0:	687b      	ldr	r3, [r7, #4]
 8001ba2:	2b00      	cmp	r3, #0
 8001ba4:	d101      	bne.n	8001baa <Com_RxIndication+0x12>
        return E_NOT_OK;
 8001ba6:	2301      	movs	r3, #1
 8001ba8:	e02c      	b.n	8001c04 <Com_RxIndication+0x6c>
    }

    if (Com_RxCount >= COM_RX_QUEUE_SIZE) {
 8001baa:	4b19      	ldr	r3, [pc, #100]	@ (8001c10 <Com_RxIndication+0x78>)
 8001bac:	781b      	ldrb	r3, [r3, #0]
 8001bae:	2b07      	cmp	r3, #7
 8001bb0:	d90e      	bls.n	8001bd0 <Com_RxIndication+0x38>
        Com_RxTail = (uint8)((Com_RxTail + 1u) % COM_RX_QUEUE_SIZE);
 8001bb2:	4b18      	ldr	r3, [pc, #96]	@ (8001c14 <Com_RxIndication+0x7c>)
 8001bb4:	781b      	ldrb	r3, [r3, #0]
 8001bb6:	3301      	adds	r3, #1
 8001bb8:	b2db      	uxtb	r3, r3
 8001bba:	f003 0307 	and.w	r3, r3, #7
 8001bbe:	b2da      	uxtb	r2, r3
 8001bc0:	4b14      	ldr	r3, [pc, #80]	@ (8001c14 <Com_RxIndication+0x7c>)
 8001bc2:	701a      	strb	r2, [r3, #0]
        Com_RxCount--;
 8001bc4:	4b12      	ldr	r3, [pc, #72]	@ (8001c10 <Com_RxIndication+0x78>)
 8001bc6:	781b      	ldrb	r3, [r3, #0]
 8001bc8:	3b01      	subs	r3, #1
 8001bca:	b2da      	uxtb	r2, r3
 8001bcc:	4b10      	ldr	r3, [pc, #64]	@ (8001c10 <Com_RxIndication+0x78>)
 8001bce:	701a      	strb	r2, [r3, #0]
    }

    Com_RxQueue[Com_RxHead] = *CanPduPtr;
 8001bd0:	4b11      	ldr	r3, [pc, #68]	@ (8001c18 <Com_RxIndication+0x80>)
 8001bd2:	781b      	ldrb	r3, [r3, #0]
 8001bd4:	4a11      	ldr	r2, [pc, #68]	@ (8001c1c <Com_RxIndication+0x84>)
 8001bd6:	011b      	lsls	r3, r3, #4
 8001bd8:	441a      	add	r2, r3
 8001bda:	687b      	ldr	r3, [r7, #4]
 8001bdc:	4614      	mov	r4, r2
 8001bde:	cb0f      	ldmia	r3, {r0, r1, r2, r3}
 8001be0:	e884 000f 	stmia.w	r4, {r0, r1, r2, r3}
    Com_RxHead = (uint8)((Com_RxHead + 1u) % COM_RX_QUEUE_SIZE);
 8001be4:	4b0c      	ldr	r3, [pc, #48]	@ (8001c18 <Com_RxIndication+0x80>)
 8001be6:	781b      	ldrb	r3, [r3, #0]
 8001be8:	3301      	adds	r3, #1
 8001bea:	b2db      	uxtb	r3, r3
 8001bec:	f003 0307 	and.w	r3, r3, #7
 8001bf0:	b2da      	uxtb	r2, r3
 8001bf2:	4b09      	ldr	r3, [pc, #36]	@ (8001c18 <Com_RxIndication+0x80>)
 8001bf4:	701a      	strb	r2, [r3, #0]
    Com_RxCount++;
 8001bf6:	4b06      	ldr	r3, [pc, #24]	@ (8001c10 <Com_RxIndication+0x78>)
 8001bf8:	781b      	ldrb	r3, [r3, #0]
 8001bfa:	3301      	adds	r3, #1
 8001bfc:	b2da      	uxtb	r2, r3
 8001bfe:	4b04      	ldr	r3, [pc, #16]	@ (8001c10 <Com_RxIndication+0x78>)
 8001c00:	701a      	strb	r2, [r3, #0]

    return E_OK;
 8001c02:	2300      	movs	r3, #0
}
 8001c04:	4618      	mov	r0, r3
 8001c06:	3708      	adds	r7, #8
 8001c08:	46bd      	mov	sp, r7
 8001c0a:	bc90      	pop	{r4, r7}
 8001c0c:	4770      	bx	lr
 8001c0e:	bf00      	nop
 8001c10:	200000ea 	.word	0x200000ea
 8001c14:	200000e9 	.word	0x200000e9
 8001c18:	200000e8 	.word	0x200000e8
 8001c1c:	20000068 	.word	0x20000068

08001c20 <Com_Receive>:

Std_ReturnType Com_Receive(Can_PduType* CanPduPtr)
{
 8001c20:	b490      	push	{r4, r7}
 8001c22:	b082      	sub	sp, #8
 8001c24:	af00      	add	r7, sp, #0
 8001c26:	6078      	str	r0, [r7, #4]
    if (CanPduPtr == NULL_PTR) {
 8001c28:	687b      	ldr	r3, [r7, #4]
 8001c2a:	2b00      	cmp	r3, #0
 8001c2c:	d101      	bne.n	8001c32 <Com_Receive+0x12>
        return E_NOT_OK;
 8001c2e:	2301      	movs	r3, #1
 8001c30:	e01f      	b.n	8001c72 <Com_Receive+0x52>
    }

    if (Com_RxCount == 0u) {
 8001c32:	4b12      	ldr	r3, [pc, #72]	@ (8001c7c <Com_Receive+0x5c>)
 8001c34:	781b      	ldrb	r3, [r3, #0]
 8001c36:	2b00      	cmp	r3, #0
 8001c38:	d101      	bne.n	8001c3e <Com_Receive+0x1e>
        return E_NOT_OK;
 8001c3a:	2301      	movs	r3, #1
 8001c3c:	e019      	b.n	8001c72 <Com_Receive+0x52>
    }

    *CanPduPtr = Com_RxQueue[Com_RxTail];
 8001c3e:	4b10      	ldr	r3, [pc, #64]	@ (8001c80 <Com_Receive+0x60>)
 8001c40:	781b      	ldrb	r3, [r3, #0]
 8001c42:	6879      	ldr	r1, [r7, #4]
 8001c44:	4a0f      	ldr	r2, [pc, #60]	@ (8001c84 <Com_Receive+0x64>)
 8001c46:	011b      	lsls	r3, r3, #4
 8001c48:	4413      	add	r3, r2
 8001c4a:	460c      	mov	r4, r1
 8001c4c:	cb0f      	ldmia	r3, {r0, r1, r2, r3}
 8001c4e:	e884 000f 	stmia.w	r4, {r0, r1, r2, r3}
    Com_RxTail = (uint8)((Com_RxTail + 1u) % COM_RX_QUEUE_SIZE);
 8001c52:	4b0b      	ldr	r3, [pc, #44]	@ (8001c80 <Com_Receive+0x60>)
 8001c54:	781b      	ldrb	r3, [r3, #0]
 8001c56:	3301      	adds	r3, #1
 8001c58:	b2db      	uxtb	r3, r3
 8001c5a:	f003 0307 	and.w	r3, r3, #7
 8001c5e:	b2da      	uxtb	r2, r3
 8001c60:	4b07      	ldr	r3, [pc, #28]	@ (8001c80 <Com_Receive+0x60>)
 8001c62:	701a      	strb	r2, [r3, #0]
    Com_RxCount--;
 8001c64:	4b05      	ldr	r3, [pc, #20]	@ (8001c7c <Com_Receive+0x5c>)
 8001c66:	781b      	ldrb	r3, [r3, #0]
 8001c68:	3b01      	subs	r3, #1
 8001c6a:	b2da      	uxtb	r2, r3
 8001c6c:	4b03      	ldr	r3, [pc, #12]	@ (8001c7c <Com_Receive+0x5c>)
 8001c6e:	701a      	strb	r2, [r3, #0]

    return E_OK;
 8001c70:	2300      	movs	r3, #0
 8001c72:	4618      	mov	r0, r3
 8001c74:	3708      	adds	r7, #8
 8001c76:	46bd      	mov	sp, r7
 8001c78:	bc90      	pop	{r4, r7}
 8001c7a:	4770      	bx	lr
 8001c7c:	200000ea 	.word	0x200000ea
 8001c80:	200000e9 	.word	0x200000e9
 8001c84:	20000068 	.word	0x20000068

08001c88 <__NVIC_SetPriority>:
  \param [in]      IRQn  Interrupt number.
  \param [in]  priority  Priority to set.
  \note    The priority cannot be set for every processor exception.
 */
__STATIC_INLINE void __NVIC_SetPriority(IRQn_Type IRQn, uint32_t priority)
{
 8001c88:	b480      	push	{r7}
 8001c8a:	b083      	sub	sp, #12
 8001c8c:	af00      	add	r7, sp, #0
 8001c8e:	4603      	mov	r3, r0
 8001c90:	6039      	str	r1, [r7, #0]
 8001c92:	71fb      	strb	r3, [r7, #7]
  if ((int32_t)(IRQn) >= 0)
 8001c94:	f997 3007 	ldrsb.w	r3, [r7, #7]
 8001c98:	2b00      	cmp	r3, #0
 8001c9a:	db0a      	blt.n	8001cb2 <__NVIC_SetPriority+0x2a>
  {
    NVIC->IP[((uint32_t)IRQn)]               = (uint8_t)((priority << (8U - __NVIC_PRIO_BITS)) & (uint32_t)0xFFUL);
 8001c9c:	683b      	ldr	r3, [r7, #0]
 8001c9e:	b2da      	uxtb	r2, r3
 8001ca0:	490c      	ldr	r1, [pc, #48]	@ (8001cd4 <__NVIC_SetPriority+0x4c>)
 8001ca2:	f997 3007 	ldrsb.w	r3, [r7, #7]
 8001ca6:	0112      	lsls	r2, r2, #4
 8001ca8:	b2d2      	uxtb	r2, r2
 8001caa:	440b      	add	r3, r1
 8001cac:	f883 2300 	strb.w	r2, [r3, #768]	@ 0x300
  }
  else
  {
    SCB->SHP[(((uint32_t)IRQn) & 0xFUL)-4UL] = (uint8_t)((priority << (8U - __NVIC_PRIO_BITS)) & (uint32_t)0xFFUL);
  }
}
 8001cb0:	e00a      	b.n	8001cc8 <__NVIC_SetPriority+0x40>
    SCB->SHP[(((uint32_t)IRQn) & 0xFUL)-4UL] = (uint8_t)((priority << (8U - __NVIC_PRIO_BITS)) & (uint32_t)0xFFUL);
 8001cb2:	683b      	ldr	r3, [r7, #0]
 8001cb4:	b2da      	uxtb	r2, r3
 8001cb6:	4908      	ldr	r1, [pc, #32]	@ (8001cd8 <__NVIC_SetPriority+0x50>)
 8001cb8:	79fb      	ldrb	r3, [r7, #7]
 8001cba:	f003 030f 	and.w	r3, r3, #15
 8001cbe:	3b04      	subs	r3, #4
 8001cc0:	0112      	lsls	r2, r2, #4
 8001cc2:	b2d2      	uxtb	r2, r2
 8001cc4:	440b      	add	r3, r1
 8001cc6:	761a      	strb	r2, [r3, #24]
}
 8001cc8:	bf00      	nop
 8001cca:	370c      	adds	r7, #12
 8001ccc:	46bd      	mov	sp, r7
 8001cce:	bc80      	pop	{r7}
 8001cd0:	4770      	bx	lr
 8001cd2:	bf00      	nop
 8001cd4:	e000e100 	.word	0xe000e100
 8001cd8:	e000ed00 	.word	0xe000ed00

08001cdc <SysTick_Config>:
  \note    When the variable <b>__Vendor_SysTickConfig</b> is set to 1, then the
           function <b>SysTick_Config</b> is not included. In this case, the file <b><i>device</i>.h</b>
           must contain a vendor-specific implementation of this function.
 */
__STATIC_INLINE uint32_t SysTick_Config(uint32_t ticks)
{
 8001cdc:	b580      	push	{r7, lr}
 8001cde:	b082      	sub	sp, #8
 8001ce0:	af00      	add	r7, sp, #0
 8001ce2:	6078      	str	r0, [r7, #4]
  if ((ticks - 1UL) > SysTick_LOAD_RELOAD_Msk)
 8001ce4:	687b      	ldr	r3, [r7, #4]
 8001ce6:	3b01      	subs	r3, #1
 8001ce8:	f1b3 7f80 	cmp.w	r3, #16777216	@ 0x1000000
 8001cec:	d301      	bcc.n	8001cf2 <SysTick_Config+0x16>
  {
    return (1UL);                                                   /* Reload value impossible */
 8001cee:	2301      	movs	r3, #1
 8001cf0:	e00f      	b.n	8001d12 <SysTick_Config+0x36>
  }

  SysTick->LOAD  = (uint32_t)(ticks - 1UL);                         /* set reload register */
 8001cf2:	4a0a      	ldr	r2, [pc, #40]	@ (8001d1c <SysTick_Config+0x40>)
 8001cf4:	687b      	ldr	r3, [r7, #4]
 8001cf6:	3b01      	subs	r3, #1
 8001cf8:	6053      	str	r3, [r2, #4]
  NVIC_SetPriority (SysTick_IRQn, (1UL << __NVIC_PRIO_BITS) - 1UL); /* set Priority for Systick Interrupt */
 8001cfa:	210f      	movs	r1, #15
 8001cfc:	f04f 30ff 	mov.w	r0, #4294967295
 8001d00:	f7ff ffc2 	bl	8001c88 <__NVIC_SetPriority>
  SysTick->VAL   = 0UL;                                             /* Load the SysTick Counter Value */
 8001d04:	4b05      	ldr	r3, [pc, #20]	@ (8001d1c <SysTick_Config+0x40>)
 8001d06:	2200      	movs	r2, #0
 8001d08:	609a      	str	r2, [r3, #8]
  SysTick->CTRL  = SysTick_CTRL_CLKSOURCE_Msk |
 8001d0a:	4b04      	ldr	r3, [pc, #16]	@ (8001d1c <SysTick_Config+0x40>)
 8001d0c:	2207      	movs	r2, #7
 8001d0e:	601a      	str	r2, [r3, #0]
                   SysTick_CTRL_TICKINT_Msk   |
                   SysTick_CTRL_ENABLE_Msk;                         /* Enable SysTick IRQ and SysTick Timer */
  return (0UL);                                                     /* Function successful */
 8001d10:	2300      	movs	r3, #0
}
 8001d12:	4618      	mov	r0, r3
 8001d14:	3708      	adds	r7, #8
 8001d16:	46bd      	mov	sp, r7
 8001d18:	bd80      	pop	{r7, pc}
 8001d1a:	bf00      	nop
 8001d1c:	e000e010 	.word	0xe000e010

08001d20 <Os_Tick>:
extern void Rte_Update_Inputs_Task10ms(void);
extern void Swc_ControlNode_Task_10ms(void);
extern void Swc_Hmi_Task_50ms(void);

void Os_Tick(void)
{
 8001d20:	b480      	push	{r7}
 8001d22:	af00      	add	r7, sp, #0
    Os_SystemTick++;
 8001d24:	4b04      	ldr	r3, [pc, #16]	@ (8001d38 <Os_Tick+0x18>)
 8001d26:	681b      	ldr	r3, [r3, #0]
 8001d28:	3301      	adds	r3, #1
 8001d2a:	4a03      	ldr	r2, [pc, #12]	@ (8001d38 <Os_Tick+0x18>)
 8001d2c:	6013      	str	r3, [r2, #0]
}
 8001d2e:	bf00      	nop
 8001d30:	46bd      	mov	sp, r7
 8001d32:	bc80      	pop	{r7}
 8001d34:	4770      	bx	lr
 8001d36:	bf00      	nop
 8001d38:	200000ec 	.word	0x200000ec

08001d3c <Os_Start>:

void Os_Start(void)
{
 8001d3c:	b580      	push	{r7, lr}
 8001d3e:	af00      	add	r7, sp, #0
    Os_SystemTick = 0u;
 8001d40:	4b06      	ldr	r3, [pc, #24]	@ (8001d5c <Os_Start+0x20>)
 8001d42:	2200      	movs	r2, #0
 8001d44:	601a      	str	r2, [r3, #0]

    /* dùng systick tạo tick 1 ms */
    SysTick_Config(SystemCoreClock / 1000u);
 8001d46:	4b06      	ldr	r3, [pc, #24]	@ (8001d60 <Os_Start+0x24>)
 8001d48:	681b      	ldr	r3, [r3, #0]
 8001d4a:	4a06      	ldr	r2, [pc, #24]	@ (8001d64 <Os_Start+0x28>)
 8001d4c:	fba2 2303 	umull	r2, r3, r2, r3
 8001d50:	099b      	lsrs	r3, r3, #6
 8001d52:	4618      	mov	r0, r3
 8001d54:	f7ff ffc2 	bl	8001cdc <SysTick_Config>
}
 8001d58:	bf00      	nop
 8001d5a:	bd80      	pop	{r7, pc}
 8001d5c:	200000ec 	.word	0x200000ec
 8001d60:	20000014 	.word	0x20000014
 8001d64:	10624dd3 	.word	0x10624dd3

08001d68 <Os_Scheduler>:

void Os_Scheduler(void)
{
 8001d68:	b580      	push	{r7, lr}
 8001d6a:	b082      	sub	sp, #8
 8001d6c:	af00      	add	r7, sp, #0
    /* lưu mốc tick gần nhất của từng task */
    static uint32 last_run_10ms = 0u;
    static uint32 last_run_50ms = 0u;

    uint32 current_tick = Os_SystemTick;
 8001d6e:	4b0f      	ldr	r3, [pc, #60]	@ (8001dac <Os_Scheduler+0x44>)
 8001d70:	681b      	ldr	r3, [r3, #0]
 8001d72:	607b      	str	r3, [r7, #4]

    if ((current_tick - last_run_10ms) >= 10u) {
 8001d74:	4b0e      	ldr	r3, [pc, #56]	@ (8001db0 <Os_Scheduler+0x48>)
 8001d76:	681b      	ldr	r3, [r3, #0]
 8001d78:	687a      	ldr	r2, [r7, #4]
 8001d7a:	1ad3      	subs	r3, r2, r3
 8001d7c:	2b09      	cmp	r3, #9
 8001d7e:	d906      	bls.n	8001d8e <Os_Scheduler+0x26>
        last_run_10ms = current_tick;
 8001d80:	4a0b      	ldr	r2, [pc, #44]	@ (8001db0 <Os_Scheduler+0x48>)
 8001d82:	687b      	ldr	r3, [r7, #4]
 8001d84:	6013      	str	r3, [r2, #0]
        Rte_Update_Inputs_Task10ms();
 8001d86:	f7ff fe69 	bl	8001a5c <Rte_Update_Inputs_Task10ms>
        Swc_ControlNode_Task_10ms();
 8001d8a:	f7ff fa5d 	bl	8001248 <Swc_ControlNode_Task_10ms>
    }

    if ((current_tick - last_run_50ms) >= 50u) {
 8001d8e:	4b09      	ldr	r3, [pc, #36]	@ (8001db4 <Os_Scheduler+0x4c>)
 8001d90:	681b      	ldr	r3, [r3, #0]
 8001d92:	687a      	ldr	r2, [r7, #4]
 8001d94:	1ad3      	subs	r3, r2, r3
 8001d96:	2b31      	cmp	r3, #49	@ 0x31
 8001d98:	d904      	bls.n	8001da4 <Os_Scheduler+0x3c>
        last_run_50ms = current_tick;
 8001d9a:	4a06      	ldr	r2, [pc, #24]	@ (8001db4 <Os_Scheduler+0x4c>)
 8001d9c:	687b      	ldr	r3, [r7, #4]
 8001d9e:	6013      	str	r3, [r2, #0]
        Swc_Hmi_Task_50ms();
 8001da0:	f7fe fd34 	bl	800080c <Swc_Hmi_Task_50ms>
    }
 8001da4:	bf00      	nop
 8001da6:	3708      	adds	r7, #8
 8001da8:	46bd      	mov	sp, r7
 8001daa:	bd80      	pop	{r7, pc}
 8001dac:	200000ec 	.word	0x200000ec
 8001db0:	200000f0 	.word	0x200000f0
 8001db4:	200000f4 	.word	0x200000f4

08001db8 <PduR_CanIfRxIndication>:
#include "PduR.h"
#include "CanIf.h"
#include "Com.h"

Std_ReturnType PduR_CanIfRxIndication(void)
{
 8001db8:	b580      	push	{r7, lr}
 8001dba:	b084      	sub	sp, #16
 8001dbc:	af00      	add	r7, sp, #0
    Can_PduType RxPdu;

    if (CanIf_RxIndication(&RxPdu) != E_OK) {
 8001dbe:	463b      	mov	r3, r7
 8001dc0:	4618      	mov	r0, r3
 8001dc2:	f7ff fa49 	bl	8001258 <CanIf_RxIndication>
 8001dc6:	4603      	mov	r3, r0
 8001dc8:	2b00      	cmp	r3, #0
 8001dca:	d001      	beq.n	8001dd0 <PduR_CanIfRxIndication+0x18>
        return E_NOT_OK;
 8001dcc:	2301      	movs	r3, #1
 8001dce:	e004      	b.n	8001dda <PduR_CanIfRxIndication+0x22>
    }

    return Com_RxIndication(&RxPdu);
 8001dd0:	463b      	mov	r3, r7
 8001dd2:	4618      	mov	r0, r3
 8001dd4:	f7ff fee0 	bl	8001b98 <Com_RxIndication>
 8001dd8:	4603      	mov	r3, r0
 8001dda:	4618      	mov	r0, r3
 8001ddc:	3710      	adds	r7, #16
 8001dde:	46bd      	mov	sp, r7
 8001de0:	bd80      	pop	{r7, pc}
	...

08001de4 <Main_SendNewLine>:
        ms--;
    }
}

static void Main_SendNewLine(void)
{
 8001de4:	b580      	push	{r7, lr}
 8001de6:	af00      	add	r7, sp, #0
    Uart_SendString("\r\n");
 8001de8:	4802      	ldr	r0, [pc, #8]	@ (8001df4 <Main_SendNewLine+0x10>)
 8001dea:	f7ff fd5b 	bl	80018a4 <Uart_SendString>
}
 8001dee:	bf00      	nop
 8001df0:	bd80      	pop	{r7, pc}
 8001df2:	bf00      	nop
 8001df4:	0800207c 	.word	0x0800207c

08001df8 <main>:

    Main_SendNewLine();
}

int main(void)
{
 8001df8:	b580      	push	{r7, lr}
 8001dfa:	b082      	sub	sp, #8
 8001dfc:	af00      	add	r7, sp, #0
    uint16 debug_counter_10ms = 0u;
 8001dfe:	2300      	movs	r3, #0
 8001e00:	80fb      	strh	r3, [r7, #6]

    /*
     * 1. Init MCU clock
     */
    Mcu_Init(NULL_PTR);
 8001e02:	2000      	movs	r0, #0
 8001e04:	f7ff fc28 	bl	8001658 <Mcu_Init>
    Mcu_InitClock();
 8001e08:	f7ff fc30 	bl	800166c <Mcu_InitClock>
    Mcu_DistributePllClock();
 8001e0c:	f7ff fc74 	bl	80016f8 <Mcu_DistributePllClock>

    /*
     * 2. Init pins
     * UART1 TX/RX, CAN RX/TX, LED nếu có
     */
    Port_Init(&Port_Config);
 8001e10:	480c      	ldr	r0, [pc, #48]	@ (8001e44 <main+0x4c>)
 8001e12:	f7ff fc8d 	bl	8001730 <Port_Init>

    /*
     * 3. Init communication
     * IoHwAb_PcCom_Init() gọi Uart_Init()
     */
    IoHwAb_PcCom_Init();
 8001e16:	f7ff fa4f 	bl	80012b8 <IoHwAb_PcCom_Init>

    /*
     * 4. Init CAN receive
     */
    Can_Init();
 8001e1a:	f7ff fb25 	bl	8001468 <Can_Init>

    Uart_SendString("\r\n");
 8001e1e:	480a      	ldr	r0, [pc, #40]	@ (8001e48 <main+0x50>)
 8001e20:	f7ff fd40 	bl	80018a4 <Uart_SendString>
    Uart_SendString("CONTROL NODE BOOT OK");
 8001e24:	4809      	ldr	r0, [pc, #36]	@ (8001e4c <main+0x54>)
 8001e26:	f7ff fd3d 	bl	80018a4 <Uart_SendString>
    Main_SendNewLine();
 8001e2a:	f7ff ffdb 	bl	8001de4 <Main_SendNewLine>
        Main_DelayMs(10u);
    }

#else

    Uart_SendString("MODE: PYTHON HMI BINARY FRAME");
 8001e2e:	4808      	ldr	r0, [pc, #32]	@ (8001e50 <main+0x58>)
 8001e30:	f7ff fd38 	bl	80018a4 <Uart_SendString>
    Main_SendNewLine();
 8001e34:	f7ff ffd6 	bl	8001de4 <Main_SendNewLine>
     * Mode thật:
     * OS chạy:
     * 10ms: RTE + Control SWC
     * 50ms: Swc_Hmi_Task_50ms -> IoHwAb_PcCom_SendHmiFrame()
     */
    Os_Start();
 8001e38:	f7ff ff80 	bl	8001d3c <Os_Start>

    while (1) {
        Os_Scheduler();
 8001e3c:	f7ff ff94 	bl	8001d68 <Os_Scheduler>
 8001e40:	e7fc      	b.n	8001e3c <main+0x44>
 8001e42:	bf00      	nop
 8001e44:	080021f4 	.word	0x080021f4
 8001e48:	0800207c 	.word	0x0800207c
 8001e4c:	080021b0 	.word	0x080021b0
 8001e50:	080021c8 	.word	0x080021c8

08001e54 <NMI_Handler>:
/******************************************************************************/
/**
  * @brief This function handles Non maskable interrupt.
  */
void NMI_Handler(void)
{
 8001e54:	b480      	push	{r7}
 8001e56:	af00      	add	r7, sp, #0
  /* USER CODE BEGIN NonMaskableInt_IRQn 0 */

  /* USER CODE END NonMaskableInt_IRQn 0 */
  /* USER CODE BEGIN NonMaskableInt_IRQn 1 */
   while (1)
 8001e58:	bf00      	nop
 8001e5a:	e7fd      	b.n	8001e58 <NMI_Handler+0x4>

08001e5c <HardFault_Handler>:

/**
  * @brief This function handles Hard fault interrupt.
  */
void HardFault_Handler(void)
{
 8001e5c:	b480      	push	{r7}
 8001e5e:	af00      	add	r7, sp, #0
  /* USER CODE BEGIN HardFault_IRQn 0 */

  /* USER CODE END HardFault_IRQn 0 */
  while (1)
 8001e60:	bf00      	nop
 8001e62:	e7fd      	b.n	8001e60 <HardFault_Handler+0x4>

08001e64 <MemManage_Handler>:

/**
  * @brief This function handles Memory management fault.
  */
void MemManage_Handler(void)
{
 8001e64:	b480      	push	{r7}
 8001e66:	af00      	add	r7, sp, #0
  /* USER CODE BEGIN MemoryManagement_IRQn 0 */

  /* USER CODE END MemoryManagement_IRQn 0 */
  while (1)
 8001e68:	bf00      	nop
 8001e6a:	e7fd      	b.n	8001e68 <MemManage_Handler+0x4>

08001e6c <BusFault_Handler>:

/**
  * @brief This function handles Prefetch fault, memory access fault.
  */
void BusFault_Handler(void)
{
 8001e6c:	b480      	push	{r7}
 8001e6e:	af00      	add	r7, sp, #0
  /* USER CODE BEGIN BusFault_IRQn 0 */

  /* USER CODE END BusFault_IRQn 0 */
  while (1)
 8001e70:	bf00      	nop
 8001e72:	e7fd      	b.n	8001e70 <BusFault_Handler+0x4>

08001e74 <UsageFault_Handler>:

/**
  * @brief This function handles Undefined instruction or illegal state.
  */
void UsageFault_Handler(void)
{
 8001e74:	b480      	push	{r7}
 8001e76:	af00      	add	r7, sp, #0
  /* USER CODE BEGIN UsageFault_IRQn 0 */

  /* USER CODE END UsageFault_IRQn 0 */
  while (1)
 8001e78:	bf00      	nop
 8001e7a:	e7fd      	b.n	8001e78 <UsageFault_Handler+0x4>

08001e7c <SVC_Handler>:

/**
  * @brief This function handles System service call via SWI instruction.
  */
void SVC_Handler(void)
{
 8001e7c:	b480      	push	{r7}
 8001e7e:	af00      	add	r7, sp, #0

  /* USER CODE END SVCall_IRQn 0 */
  /* USER CODE BEGIN SVCall_IRQn 1 */

  /* USER CODE END SVCall_IRQn 1 */
}
 8001e80:	bf00      	nop
 8001e82:	46bd      	mov	sp, r7
 8001e84:	bc80      	pop	{r7}
 8001e86:	4770      	bx	lr

08001e88 <DebugMon_Handler>:

/**
  * @brief This function handles Debug monitor.
  */
void DebugMon_Handler(void)
{
 8001e88:	b480      	push	{r7}
 8001e8a:	af00      	add	r7, sp, #0

  /* USER CODE END DebugMonitor_IRQn 0 */
  /* USER CODE BEGIN DebugMonitor_IRQn 1 */

  /* USER CODE END DebugMonitor_IRQn 1 */
}
 8001e8c:	bf00      	nop
 8001e8e:	46bd      	mov	sp, r7
 8001e90:	bc80      	pop	{r7}
 8001e92:	4770      	bx	lr

08001e94 <PendSV_Handler>:

/**
  * @brief This function handles Pendable request for system service.
  */
void PendSV_Handler(void)
{
 8001e94:	b480      	push	{r7}
 8001e96:	af00      	add	r7, sp, #0

  /* USER CODE END PendSV_IRQn 0 */
  /* USER CODE BEGIN PendSV_IRQn 1 */

  /* USER CODE END PendSV_IRQn 1 */
}
 8001e98:	bf00      	nop
 8001e9a:	46bd      	mov	sp, r7
 8001e9c:	bc80      	pop	{r7}
 8001e9e:	4770      	bx	lr

08001ea0 <SysTick_Handler>:

/**
  * @brief This function handles System tick timer.
  */
void SysTick_Handler(void)
{
 8001ea0:	b580      	push	{r7, lr}
 8001ea2:	af00      	add	r7, sp, #0
  /* USER CODE BEGIN SysTick_IRQn 0 */

  /* USER CODE END SysTick_IRQn 0 */
  HAL_IncTick();
 8001ea4:	f000 f8a8 	bl	8001ff8 <HAL_IncTick>
  Os_Tick();
 8001ea8:	f7ff ff3a 	bl	8001d20 <Os_Tick>
  /* USER CODE BEGIN SysTick_IRQn 1 */

  /* USER CODE END SysTick_IRQn 1 */
}
 8001eac:	bf00      	nop
 8001eae:	bd80      	pop	{r7, pc}

08001eb0 <USB_LP_CAN1_RX0_IRQHandler>:

/**
  * @brief This function handles USB low priority or CAN RX0 interrupts.
  */
void USB_LP_CAN1_RX0_IRQHandler(void)
{
 8001eb0:	b480      	push	{r7}
 8001eb2:	af00      	add	r7, sp, #0
  /* USER CODE END USB_LP_CAN1_RX0_IRQn 0 */

  /* USER CODE BEGIN USB_LP_CAN1_RX0_IRQn 1 */

  /* USER CODE END USB_LP_CAN1_RX0_IRQn 1 */
}
 8001eb4:	bf00      	nop
 8001eb6:	46bd      	mov	sp, r7
 8001eb8:	bc80      	pop	{r7}
 8001eba:	4770      	bx	lr

08001ebc <SystemInit>:
  * @note   This function should be used only after reset.
  * @param  None
  * @retval None
  */
void SystemInit (void)
{
 8001ebc:	b480      	push	{r7}
 8001ebe:	af00      	add	r7, sp, #0

  /* Configure the Vector Table location -------------------------------------*/
#if defined(USER_VECT_TAB_ADDRESS)
  SCB->VTOR = VECT_TAB_BASE_ADDRESS | VECT_TAB_OFFSET; /* Vector Table Relocation in Internal SRAM. */
#endif /* USER_VECT_TAB_ADDRESS */
}
 8001ec0:	bf00      	nop
 8001ec2:	46bd      	mov	sp, r7
 8001ec4:	bc80      	pop	{r7}
 8001ec6:	4770      	bx	lr

08001ec8 <SystemCoreClockUpdate>:
  *           value for HSE crystal.
  * @param  None
  * @retval None
  */
void SystemCoreClockUpdate (void)
{
 8001ec8:	b480      	push	{r7}
 8001eca:	b085      	sub	sp, #20
 8001ecc:	af00      	add	r7, sp, #0
  uint32_t tmp = 0U, pllmull = 0U, pllsource = 0U;
 8001ece:	2300      	movs	r3, #0
 8001ed0:	60fb      	str	r3, [r7, #12]
 8001ed2:	2300      	movs	r3, #0
 8001ed4:	60bb      	str	r3, [r7, #8]
 8001ed6:	2300      	movs	r3, #0
 8001ed8:	607b      	str	r3, [r7, #4]
#if defined(STM32F100xB) || defined(STM32F100xE)
  uint32_t prediv1factor = 0U;
#endif /* STM32F100xB or STM32F100xE */
    
  /* Get SYSCLK source -------------------------------------------------------*/
  tmp = RCC->CFGR & RCC_CFGR_SWS;
 8001eda:	4b2f      	ldr	r3, [pc, #188]	@ (8001f98 <SystemCoreClockUpdate+0xd0>)
 8001edc:	685b      	ldr	r3, [r3, #4]
 8001ede:	f003 030c 	and.w	r3, r3, #12
 8001ee2:	60fb      	str	r3, [r7, #12]
  
  switch (tmp)
 8001ee4:	68fb      	ldr	r3, [r7, #12]
 8001ee6:	2b08      	cmp	r3, #8
 8001ee8:	d011      	beq.n	8001f0e <SystemCoreClockUpdate+0x46>
 8001eea:	68fb      	ldr	r3, [r7, #12]
 8001eec:	2b08      	cmp	r3, #8
 8001eee:	d83a      	bhi.n	8001f66 <SystemCoreClockUpdate+0x9e>
 8001ef0:	68fb      	ldr	r3, [r7, #12]
 8001ef2:	2b00      	cmp	r3, #0
 8001ef4:	d003      	beq.n	8001efe <SystemCoreClockUpdate+0x36>
 8001ef6:	68fb      	ldr	r3, [r7, #12]
 8001ef8:	2b04      	cmp	r3, #4
 8001efa:	d004      	beq.n	8001f06 <SystemCoreClockUpdate+0x3e>
 8001efc:	e033      	b.n	8001f66 <SystemCoreClockUpdate+0x9e>
  {
    case 0x00U:  /* HSI used as system clock */
      SystemCoreClock = HSI_VALUE;
 8001efe:	4b27      	ldr	r3, [pc, #156]	@ (8001f9c <SystemCoreClockUpdate+0xd4>)
 8001f00:	4a27      	ldr	r2, [pc, #156]	@ (8001fa0 <SystemCoreClockUpdate+0xd8>)
 8001f02:	601a      	str	r2, [r3, #0]
      break;
 8001f04:	e033      	b.n	8001f6e <SystemCoreClockUpdate+0xa6>
    case 0x04U:  /* HSE used as system clock */
      SystemCoreClock = HSE_VALUE;
 8001f06:	4b25      	ldr	r3, [pc, #148]	@ (8001f9c <SystemCoreClockUpdate+0xd4>)
 8001f08:	4a25      	ldr	r2, [pc, #148]	@ (8001fa0 <SystemCoreClockUpdate+0xd8>)
 8001f0a:	601a      	str	r2, [r3, #0]
      break;
 8001f0c:	e02f      	b.n	8001f6e <SystemCoreClockUpdate+0xa6>
    case 0x08U:  /* PLL used as system clock */

      /* Get PLL clock source and multiplication factor ----------------------*/
      pllmull = RCC->CFGR & RCC_CFGR_PLLMULL;
 8001f0e:	4b22      	ldr	r3, [pc, #136]	@ (8001f98 <SystemCoreClockUpdate+0xd0>)
 8001f10:	685b      	ldr	r3, [r3, #4]
 8001f12:	f403 1370 	and.w	r3, r3, #3932160	@ 0x3c0000
 8001f16:	60bb      	str	r3, [r7, #8]
      pllsource = RCC->CFGR & RCC_CFGR_PLLSRC;
 8001f18:	4b1f      	ldr	r3, [pc, #124]	@ (8001f98 <SystemCoreClockUpdate+0xd0>)
 8001f1a:	685b      	ldr	r3, [r3, #4]
 8001f1c:	f403 3380 	and.w	r3, r3, #65536	@ 0x10000
 8001f20:	607b      	str	r3, [r7, #4]
      
#if !defined(STM32F105xC) && !defined(STM32F107xC)      
      pllmull = ( pllmull >> 18U) + 2U;
 8001f22:	68bb      	ldr	r3, [r7, #8]
 8001f24:	0c9b      	lsrs	r3, r3, #18
 8001f26:	3302      	adds	r3, #2
 8001f28:	60bb      	str	r3, [r7, #8]
      
      if (pllsource == 0x00U)
 8001f2a:	687b      	ldr	r3, [r7, #4]
 8001f2c:	2b00      	cmp	r3, #0
 8001f2e:	d106      	bne.n	8001f3e <SystemCoreClockUpdate+0x76>
      {
        /* HSI oscillator clock divided by 2 selected as PLL clock entry */
        SystemCoreClock = (HSI_VALUE >> 1U) * pllmull;
 8001f30:	68bb      	ldr	r3, [r7, #8]
 8001f32:	4a1c      	ldr	r2, [pc, #112]	@ (8001fa4 <SystemCoreClockUpdate+0xdc>)
 8001f34:	fb02 f303 	mul.w	r3, r2, r3
 8001f38:	4a18      	ldr	r2, [pc, #96]	@ (8001f9c <SystemCoreClockUpdate+0xd4>)
 8001f3a:	6013      	str	r3, [r2, #0]
          pll2mull = ((RCC->CFGR2 & RCC_CFGR2_PLL2MUL) >> 8U) + 2U; 
          SystemCoreClock = (((HSE_VALUE / prediv2factor) * pll2mull) / prediv1factor) * pllmull;                         
        }
      }
#endif /* STM32F105xC */ 
      break;
 8001f3c:	e017      	b.n	8001f6e <SystemCoreClockUpdate+0xa6>
        if ((RCC->CFGR & RCC_CFGR_PLLXTPRE) != (uint32_t)RESET)
 8001f3e:	4b16      	ldr	r3, [pc, #88]	@ (8001f98 <SystemCoreClockUpdate+0xd0>)
 8001f40:	685b      	ldr	r3, [r3, #4]
 8001f42:	f403 3300 	and.w	r3, r3, #131072	@ 0x20000
 8001f46:	2b00      	cmp	r3, #0
 8001f48:	d006      	beq.n	8001f58 <SystemCoreClockUpdate+0x90>
          SystemCoreClock = (HSE_VALUE >> 1U) * pllmull;
 8001f4a:	68bb      	ldr	r3, [r7, #8]
 8001f4c:	4a15      	ldr	r2, [pc, #84]	@ (8001fa4 <SystemCoreClockUpdate+0xdc>)
 8001f4e:	fb02 f303 	mul.w	r3, r2, r3
 8001f52:	4a12      	ldr	r2, [pc, #72]	@ (8001f9c <SystemCoreClockUpdate+0xd4>)
 8001f54:	6013      	str	r3, [r2, #0]
      break;
 8001f56:	e00a      	b.n	8001f6e <SystemCoreClockUpdate+0xa6>
          SystemCoreClock = HSE_VALUE * pllmull;
 8001f58:	68bb      	ldr	r3, [r7, #8]
 8001f5a:	4a11      	ldr	r2, [pc, #68]	@ (8001fa0 <SystemCoreClockUpdate+0xd8>)
 8001f5c:	fb02 f303 	mul.w	r3, r2, r3
 8001f60:	4a0e      	ldr	r2, [pc, #56]	@ (8001f9c <SystemCoreClockUpdate+0xd4>)
 8001f62:	6013      	str	r3, [r2, #0]
      break;
 8001f64:	e003      	b.n	8001f6e <SystemCoreClockUpdate+0xa6>

    default:
      SystemCoreClock = HSI_VALUE;
 8001f66:	4b0d      	ldr	r3, [pc, #52]	@ (8001f9c <SystemCoreClockUpdate+0xd4>)
 8001f68:	4a0d      	ldr	r2, [pc, #52]	@ (8001fa0 <SystemCoreClockUpdate+0xd8>)
 8001f6a:	601a      	str	r2, [r3, #0]
      break;
 8001f6c:	bf00      	nop
  }
  
  /* Compute HCLK clock frequency ----------------*/
  /* Get HCLK prescaler */
  tmp = AHBPrescTable[((RCC->CFGR & RCC_CFGR_HPRE) >> 4U)];
 8001f6e:	4b0a      	ldr	r3, [pc, #40]	@ (8001f98 <SystemCoreClockUpdate+0xd0>)
 8001f70:	685b      	ldr	r3, [r3, #4]
 8001f72:	091b      	lsrs	r3, r3, #4
 8001f74:	f003 030f 	and.w	r3, r3, #15
 8001f78:	4a0b      	ldr	r2, [pc, #44]	@ (8001fa8 <SystemCoreClockUpdate+0xe0>)
 8001f7a:	5cd3      	ldrb	r3, [r2, r3]
 8001f7c:	60fb      	str	r3, [r7, #12]
  /* HCLK clock frequency */
  SystemCoreClock >>= tmp;  
 8001f7e:	4b07      	ldr	r3, [pc, #28]	@ (8001f9c <SystemCoreClockUpdate+0xd4>)
 8001f80:	681a      	ldr	r2, [r3, #0]
 8001f82:	68fb      	ldr	r3, [r7, #12]
 8001f84:	fa22 f303 	lsr.w	r3, r2, r3
 8001f88:	4a04      	ldr	r2, [pc, #16]	@ (8001f9c <SystemCoreClockUpdate+0xd4>)
 8001f8a:	6013      	str	r3, [r2, #0]
}
 8001f8c:	bf00      	nop
 8001f8e:	3714      	adds	r7, #20
 8001f90:	46bd      	mov	sp, r7
 8001f92:	bc80      	pop	{r7}
 8001f94:	4770      	bx	lr
 8001f96:	bf00      	nop
 8001f98:	40021000 	.word	0x40021000
 8001f9c:	20000014 	.word	0x20000014
 8001fa0:	007a1200 	.word	0x007a1200
 8001fa4:	003d0900 	.word	0x003d0900
 8001fa8:	0800220c 	.word	0x0800220c

08001fac <Reset_Handler>:
  .weak Reset_Handler
  .type Reset_Handler, %function
Reset_Handler:

/* Call the clock system initialization function.*/
    bl  SystemInit
 8001fac:	f7ff ff86 	bl	8001ebc <SystemInit>

/* Copy the data segment initializers from flash to SRAM */
  ldr r0, =_sdata
 8001fb0:	480b      	ldr	r0, [pc, #44]	@ (8001fe0 <LoopFillZerobss+0xe>)
  ldr r1, =_edata
 8001fb2:	490c      	ldr	r1, [pc, #48]	@ (8001fe4 <LoopFillZerobss+0x12>)
  ldr r2, =_sidata
 8001fb4:	4a0c      	ldr	r2, [pc, #48]	@ (8001fe8 <LoopFillZerobss+0x16>)
  movs r3, #0
 8001fb6:	2300      	movs	r3, #0
  b LoopCopyDataInit
 8001fb8:	e002      	b.n	8001fc0 <LoopCopyDataInit>

08001fba <CopyDataInit>:

CopyDataInit:
  ldr r4, [r2, r3]
 8001fba:	58d4      	ldr	r4, [r2, r3]
  str r4, [r0, r3]
 8001fbc:	50c4      	str	r4, [r0, r3]
  adds r3, r3, #4
 8001fbe:	3304      	adds	r3, #4

08001fc0 <LoopCopyDataInit>:

LoopCopyDataInit:
  adds r4, r0, r3
 8001fc0:	18c4      	adds	r4, r0, r3
  cmp r4, r1
 8001fc2:	428c      	cmp	r4, r1
  bcc CopyDataInit
 8001fc4:	d3f9      	bcc.n	8001fba <CopyDataInit>
  
/* Zero fill the bss segment. */
  ldr r2, =_sbss
 8001fc6:	4a09      	ldr	r2, [pc, #36]	@ (8001fec <LoopFillZerobss+0x1a>)
  ldr r4, =_ebss
 8001fc8:	4c09      	ldr	r4, [pc, #36]	@ (8001ff0 <LoopFillZerobss+0x1e>)
  movs r3, #0
 8001fca:	2300      	movs	r3, #0
  b LoopFillZerobss
 8001fcc:	e001      	b.n	8001fd2 <LoopFillZerobss>

08001fce <FillZerobss>:

FillZerobss:
  str  r3, [r2]
 8001fce:	6013      	str	r3, [r2, #0]
  adds r2, r2, #4
 8001fd0:	3204      	adds	r2, #4

08001fd2 <LoopFillZerobss>:

LoopFillZerobss:
  cmp r2, r4
 8001fd2:	42a2      	cmp	r2, r4
  bcc FillZerobss
 8001fd4:	d3fb      	bcc.n	8001fce <FillZerobss>

/* Call static constructors */
    bl __libc_init_array
 8001fd6:	f000 f821 	bl	800201c <__libc_init_array>
/* Call the application's entry point.*/
  bl main
 8001fda:	f7ff ff0d 	bl	8001df8 <main>
  bx lr
 8001fde:	4770      	bx	lr
  ldr r0, =_sdata
 8001fe0:	20000000 	.word	0x20000000
  ldr r1, =_edata
 8001fe4:	2000001c 	.word	0x2000001c
  ldr r2, =_sidata
 8001fe8:	08002224 	.word	0x08002224
  ldr r2, =_sbss
 8001fec:	2000001c 	.word	0x2000001c
  ldr r4, =_ebss
 8001ff0:	200000fc 	.word	0x200000fc

08001ff4 <ADC1_2_IRQHandler>:
 * @retval : None
*/
    .section .text.Default_Handler,"ax",%progbits
Default_Handler:
Infinite_Loop:
  b Infinite_Loop
 8001ff4:	e7fe      	b.n	8001ff4 <ADC1_2_IRQHandler>
	...

08001ff8 <HAL_IncTick>:
  * @note This function is declared as __weak to be overwritten in case of other
  *      implementations in user file.
  * @retval None
  */
__weak void HAL_IncTick(void)
{
 8001ff8:	b480      	push	{r7}
 8001ffa:	af00      	add	r7, sp, #0
  uwTick += uwTickFreq;
 8001ffc:	4b05      	ldr	r3, [pc, #20]	@ (8002014 <HAL_IncTick+0x1c>)
 8001ffe:	781b      	ldrb	r3, [r3, #0]
 8002000:	461a      	mov	r2, r3
 8002002:	4b05      	ldr	r3, [pc, #20]	@ (8002018 <HAL_IncTick+0x20>)
 8002004:	681b      	ldr	r3, [r3, #0]
 8002006:	4413      	add	r3, r2
 8002008:	4a03      	ldr	r2, [pc, #12]	@ (8002018 <HAL_IncTick+0x20>)
 800200a:	6013      	str	r3, [r2, #0]
}
 800200c:	bf00      	nop
 800200e:	46bd      	mov	sp, r7
 8002010:	bc80      	pop	{r7}
 8002012:	4770      	bx	lr
 8002014:	20000018 	.word	0x20000018
 8002018:	200000f8 	.word	0x200000f8

0800201c <__libc_init_array>:
 800201c:	b570      	push	{r4, r5, r6, lr}
 800201e:	2600      	movs	r6, #0
 8002020:	4d0c      	ldr	r5, [pc, #48]	@ (8002054 <__libc_init_array+0x38>)
 8002022:	4c0d      	ldr	r4, [pc, #52]	@ (8002058 <__libc_init_array+0x3c>)
 8002024:	1b64      	subs	r4, r4, r5
 8002026:	10a4      	asrs	r4, r4, #2
 8002028:	42a6      	cmp	r6, r4
 800202a:	d109      	bne.n	8002040 <__libc_init_array+0x24>
 800202c:	f000 f81a 	bl	8002064 <_init>
 8002030:	2600      	movs	r6, #0
 8002032:	4d0a      	ldr	r5, [pc, #40]	@ (800205c <__libc_init_array+0x40>)
 8002034:	4c0a      	ldr	r4, [pc, #40]	@ (8002060 <__libc_init_array+0x44>)
 8002036:	1b64      	subs	r4, r4, r5
 8002038:	10a4      	asrs	r4, r4, #2
 800203a:	42a6      	cmp	r6, r4
 800203c:	d105      	bne.n	800204a <__libc_init_array+0x2e>
 800203e:	bd70      	pop	{r4, r5, r6, pc}
 8002040:	f855 3b04 	ldr.w	r3, [r5], #4
 8002044:	4798      	blx	r3
 8002046:	3601      	adds	r6, #1
 8002048:	e7ee      	b.n	8002028 <__libc_init_array+0xc>
 800204a:	f855 3b04 	ldr.w	r3, [r5], #4
 800204e:	4798      	blx	r3
 8002050:	3601      	adds	r6, #1
 8002052:	e7f2      	b.n	800203a <__libc_init_array+0x1e>
 8002054:	0800221c 	.word	0x0800221c
 8002058:	0800221c 	.word	0x0800221c
 800205c:	0800221c 	.word	0x0800221c
 8002060:	08002220 	.word	0x08002220

08002064 <_init>:
 8002064:	b5f8      	push	{r3, r4, r5, r6, r7, lr}
 8002066:	bf00      	nop
 8002068:	bcf8      	pop	{r3, r4, r5, r6, r7}
 800206a:	bc08      	pop	{r3}
 800206c:	469e      	mov	lr, r3
 800206e:	4770      	bx	lr

08002070 <_fini>:
 8002070:	b5f8      	push	{r3, r4, r5, r6, r7, lr}
 8002072:	bf00      	nop
 8002074:	bcf8      	pop	{r3, r4, r5, r6, r7}
 8002076:	bc08      	pop	{r3}
 8002078:	469e      	mov	lr, r3
 800207a:	4770      	bx	lr
